<?xml version="1.0" encoding="utf-8"?>
<?xml-stylesheet type="text/xsl" href="pdml2html.xsl"?>
<!-- You can find pdml2html.xsl in /opt/homebrew/share/doc/wireshark or at https://gitlab.com/wireshark/wireshark/-/tree/master/resources/share/doc/wireshark/pdml2html.xsl. -->
<pdml version="0" creator="wireshark/4.6.8" time="Mon Sep 14 06:56:28 2026" capture_file="/Users/vonirug/Yandex.Disk.localized/projects/conf/smartdata2026/workshop/results/captures/smartdata-v96-20260914-065609/ch-adbc/capture.pcapng">
<packet>
  <proto name="geninfo" pos="0" showname="General information" size="68">
    <field name="num" pos="0" show="1" showname="Number" value="1" size="68"/>
    <field name="len" pos="0" show="68" showname="Frame Length" value="44" size="68"/>
    <field name="caplen" pos="0" show="68" showname="Captured Length" value="44" size="68"/>
    <field name="timestamp" pos="0" show="Sep 14, 2026 06:56:27.363740000 MSK" showname="Captured Time" value="1789358187.363740000" size="68"/>
  </proto>
  <proto name="frame" showname="Frame 1: Packet, 68 bytes on wire (544 bits), 68 bytes captured (544 bits) on interface lo0, id 0" size="68" pos="0">
    <field name="frame.section_number" showname="Section number: 1" size="0" pos="0" show="1"/>
    <field name="frame.interface_id" showname="Interface id: 0 (lo0)" size="0" pos="0" show="0">
      <field name="frame.interface_name" showname="Interface name: lo0" size="0" pos="0" show="lo0"/>
      <field name="frame.interface_description" showname="Interface description: Loopback" size="0" pos="0" show="Loopback"/>
    </field>
    <field name="frame.encap_type" showname="Encapsulation type: NULL/Loopback (15)" size="0" pos="0" show="15"/>
    <field name="frame.time" showname="Arrival Time: Sep 14, 2026 06:56:27.363740000 MSK" size="0" pos="0" show="2026-09-14T06:56:27.363740000+0300"/>
    <field name="frame.time_utc" showname="UTC Arrival Time: Sep 14, 2026 03:56:27.363740000 UTC" size="0" pos="0" show="2026-09-14T03:56:27.363740000Z"/>
    <field name="frame.time_epoch" showname="Epoch Arrival Time: 1789358187.363740000" size="0" pos="0" show="1789358187.363740000"/>
    <field name="frame.offset_shift" showname="Time shift for this packet: 0.000000000 seconds" size="0" pos="0" show="0.000000000"/>
    <field name="frame.time_relative" showname="Time since reference or first frame: 0.000000000 seconds" size="0" pos="0" show="0.000000000"/>
    <field name="frame.number" showname="Frame Number: 1" size="0" pos="0" show="1"/>
    <field name="frame.len" showname="Frame Length: 68 bytes (544 bits)" size="0" pos="0" show="68"/>
    <field name="frame.cap_len" showname="Capture Length: 68 bytes (544 bits)" size="0" pos="0" show="68"/>
    <field name="frame.marked" showname="Frame is marked: False" size="0" pos="0" show="False"/>
    <field name="frame.ignored" showname="Frame is ignored: False" size="0" pos="0" show="False"/>
    <field name="frame.protocols" showname="Protocols in frame: null:ip:tcp" size="0" pos="0" show="null:ip:tcp"/>
    <field name="frame.encoding" showname="Character encoding: ASCII (0)" size="0" pos="0" show="0"/>
  </proto>
  <proto name="null" showname="Null/Loopback" size="4" pos="0">
    <field name="null.family" showname="Family: IP (2)" size="4" pos="0" show="2" value="02000000"/>
  </proto>
  <proto name="ip" showname="Internet Protocol Version 4, Src: 127.0.0.1, Dst: 127.0.0.1" size="20" pos="4">
    <field name="ip.version" showname="0100 .... = Version: 4" size="1" pos="4" show="4" value="45"/>
    <field name="ip.hdr_len" showname=".... 0101 = Header Length: 20 bytes (5)" size="1" pos="4" show="20" value="45"/>
    <field name="ip.dsfield" showname="Differentiated Services Field: 0x00 (DSCP: CS0, ECN: Not-ECT)" size="1" pos="5" show="0x00" value="00">
      <field name="ip.dsfield.dscp" showname="0000 00.. = Differentiated Services Codepoint: Default (0)" size="1" pos="5" show="0" value="0" unmaskedvalue="00"/>
      <field name="ip.dsfield.ecn" showname=".... ..00 = Explicit Congestion Notification: Not ECN-Capable Transport (0)" size="1" pos="5" show="0" value="0" unmaskedvalue="00"/>
    </field>
    <field name="ip.len" showname="Total Length: 64" size="2" pos="6" show="64" value="0040"/>
    <field name="ip.id" showname="Identification: 0x0000 (0)" size="2" pos="8" show="0x0000" value="0000"/>
    <field name="ip.flags" showname="010. .... = Flags: 0x2, Don&#x27;t fragment" size="1" pos="10" show="0x02" value="2" unmaskedvalue="40">
      <field name="ip.flags.rb" showname="0... .... = Reserved bit: Not set" size="1" pos="10" show="False" value="0" unmaskedvalue="40"/>
      <field name="ip.flags.df" showname=".1.. .... = Don&#x27;t fragment: Set" size="1" pos="10" show="True" value="1" unmaskedvalue="40"/>
      <field name="ip.flags.mf" showname="..0. .... = More fragments: Not set" size="1" pos="10" show="False" value="0" unmaskedvalue="40"/>
    </field>
    <field name="ip.frag_offset" showname="...0 0000 0000 0000 = Fragment Offset: 0" size="2" pos="10" show="0" value="0" unmaskedvalue="4000"/>
    <field name="ip.ttl" showname="Time to Live: 64" size="1" pos="12" show="64" value="40"/>
    <field name="ip.proto" showname="Protocol: TCP (6)" size="1" pos="13" show="6" value="06"/>
    <field name="ip.checksum" showname="Header Checksum: 0x0000 [validation disabled]" size="2" pos="14" show="0x0000" value="0000"/>
    <field name="ip.checksum.status" showname="Header checksum status: Unverified" size="0" pos="14" show="2"/>
    <field name="ip.src" showname="Source Address: 127.0.0.1" size="4" pos="16" show="127.0.0.1" value="7f000001"/>
    <field name="ip.addr" showname="Source or Destination Address: 127.0.0.1" hide="yes" size="4" pos="16" show="127.0.0.1" value="7f000001"/>
    <field name="ip.src_host" showname="Source Host: 127.0.0.1" hide="yes" size="4" pos="16" show="127.0.0.1" value="7f000001"/>
    <field name="ip.host" showname="Source or Destination Host: 127.0.0.1" hide="yes" size="4" pos="16" show="127.0.0.1" value="7f000001"/>
    <field name="ip.dst" showname="Destination Address: 127.0.0.1" size="4" pos="20" show="127.0.0.1" value="7f000001"/>
    <field name="ip.addr" showname="Source or Destination Address: 127.0.0.1" hide="yes" size="4" pos="20" show="127.0.0.1" value="7f000001"/>
    <field name="ip.dst_host" showname="Destination Host: 127.0.0.1" hide="yes" size="4" pos="20" show="127.0.0.1" value="7f000001"/>
    <field name="ip.host" showname="Source or Destination Host: 127.0.0.1" hide="yes" size="4" pos="20" show="127.0.0.1" value="7f000001"/>
    <field name="ip.stream" showname="Stream index: 0" size="0" pos="24" show="0"/>
  </proto>
  <proto name="tcp" showname="Transmission Control Protocol, Src Port: 56100, Dst Port: 18123, Seq: 0, Len: 0" size="44" pos="24">
    <field name="tcp.srcport" showname="Source Port: 56100" size="2" pos="24" show="56100" value="db24"/>
    <field name="tcp.dstport" showname="Destination Port: 18123" size="2" pos="26" show="18123" value="46cb"/>
    <field name="tcp.port" showname="Source or Destination Port: 56100" hide="yes" size="2" pos="24" show="56100" value="db24"/>
    <field name="tcp.port" showname="Source or Destination Port: 18123" hide="yes" size="2" pos="26" show="18123" value="46cb"/>
    <field name="tcp.stream" showname="Stream index: 0" size="0" pos="24" show="0"/>
    <field name="tcp.stream.pnum" showname="Stream Packet Number: 1" size="0" pos="24" show="1"/>
    <field name="tcp.completeness" showname="Conversation completeness: Incomplete (0)" size="0" pos="24" show="0">
      <field name="tcp.completeness.rst" showname="..0. .... = RST: Absent" size="0" pos="0" show="False"/>
      <field name="tcp.completeness.fin" showname="...0 .... = FIN: Absent" size="0" pos="0" show="False"/>
      <field name="tcp.completeness.data" showname=".... 0... = Data: Absent" size="0" pos="0" show="False"/>
      <field name="tcp.completeness.ack" showname=".... .0.. = ACK: Absent" size="0" pos="0" show="False"/>
      <field name="tcp.completeness.syn-ack" showname=".... ..0. = SYN-ACK: Absent" size="0" pos="0" show="False"/>
      <field name="tcp.completeness.syn" showname=".... ...0 = SYN: Absent" size="0" pos="0" show="False"/>
      <field name="tcp.completeness.str" showname="Completeness Flags: [ Null ]" size="0" pos="24" show="[ Null ]"/>
    </field>
    <field name="tcp.len" showname="TCP Segment Len: 0" size="0" pos="24" show="0"/>
    <field name="tcp.seq" showname="Sequence Number: 0    (relative sequence number)" size="4" pos="28" show="0" value="032b089a"/>
    <field name="tcp.seq_raw" showname="Sequence Number (raw): 53151898" size="4" pos="28" show="53151898" value="032b089a"/>
    <field name="tcp.nxtseq" showname="Next Sequence Number: 1    (relative sequence number)" size="0" pos="24" show="1"/>
    <field name="tcp.ack" showname="Acknowledgment Number: 0" size="4" pos="32" show="0" value="00000000"/>
    <field name="tcp.ack_raw" showname="Acknowledgment number (raw): 0" size="4" pos="32" show="0" value="00000000"/>
    <field name="tcp.hdr_len" showname="1011 .... = Header Length: 44 bytes (11)" size="1" pos="36" show="44" value="b0"/>
    <field name="tcp.flags" showname="Flags: 0x002 (SYN)" size="2" pos="36" show="0x0002" value="2" unmaskedvalue="b002">
      <field name="tcp.flags.res" showname="000. .... .... = Reserved: Not set" size="1" pos="36" show="False" value="0" unmaskedvalue="b0"/>
      <field name="tcp.flags.ae" showname="...0 .... .... = Accurate ECN: Not set" size="1" pos="36" show="False" value="0" unmaskedvalue="b0"/>
      <field name="tcp.flags.cwr" showname=".... 0... .... = Congestion Window Reduced: Not set" size="1" pos="37" show="False" value="0" unmaskedvalue="02"/>
      <field name="tcp.flags.ece" showname=".... .0.. .... = ECN-Echo: Not set" size="1" pos="37" show="False" value="0" unmaskedvalue="02"/>
      <field name="tcp.flags.urg" showname=".... ..0. .... = Urgent: Not set" size="1" pos="37" show="False" value="0" unmaskedvalue="02"/>
      <field name="tcp.flags.ack" showname=".... ...0 .... = Acknowledgment: Not set" size="1" pos="37" show="False" value="0" unmaskedvalue="02"/>
      <field name="tcp.flags.push" showname=".... .... 0... = Push: Not set" size="1" pos="37" show="False" value="0" unmaskedvalue="02"/>
      <field name="tcp.flags.reset" showname=".... .... .0.. = Reset: Not set" size="1" pos="37" show="False" value="0" unmaskedvalue="02"/>
      <field name="tcp.flags.syn" showname=".... .... ..1. = Syn: Set" size="1" pos="37" show="True" value="1" unmaskedvalue="02">
        <field name="_ws.expert" showname="Expert Info (Chat/Sequence): Connection establish request (SYN): server port 18123" size="0" pos="37">
          <field name="tcp.connection.syn" showname="Connection establish request (SYN): server port 18123" size="0" pos="0" show="" value=""/>
          <field name="_ws.expert.message" showname="Message: Connection establish request (SYN): server port 18123" hide="yes" size="0" pos="0" show="Connection establish request (SYN): server port 18123"/>
          <field name="_ws.expert.severity" showname="Severity level: Chat" size="0" pos="0" show="2097152"/>
          <field name="_ws.expert.group" showname="Group: Sequence" size="0" pos="0" show="33554432"/>
        </field>
      </field>
      <field name="tcp.flags.fin" showname=".... .... ...0 = Fin: Not set" size="1" pos="37" show="False" value="0" unmaskedvalue="02"/>
      <field name="tcp.flags.str" showname="TCP Flags: ··········S·" size="2" pos="36" show="··········S·" value="b002"/>
    </field>
    <field name="tcp.window_size_value" showname="Window: 65535" size="2" pos="38" show="65535" value="ffff"/>
    <field name="tcp.window_size" showname="Calculated window size: 65535" size="2" pos="38" show="65535" value="ffff"/>
    <field name="tcp.checksum" showname="Checksum: 0xfe34 [unverified]" size="2" pos="40" show="0xfe34" value="fe34"/>
    <field name="tcp.checksum.status" showname="Checksum Status: Unverified" size="0" pos="40" show="2"/>
    <field name="tcp.urgent_pointer" showname="Urgent Pointer: 0" size="2" pos="42" show="0" value="0000"/>
    <field name="tcp.options" showname="Options: (24 bytes), Maximum segment size, No-Operation (NOP), Window scale, No-Operation (NOP), No-Operation (NOP), Timestamps, SACK permitted, End of Option List (EOL), End of Option List (EOL)" size="24" pos="44" show="02:04:3f:d8:01:03:03:06:01:01:08:0a:f6:cf:64:2c:00:00:00:00:04:02:00:00" value="02043fd8010303060101080af6cf642c0000000004020000">
      <field name="tcp.options.mss" showname="TCP Option - Maximum segment size: 16344 bytes" size="4" pos="44" show="02:04:3f:d8" value="02043fd8">
        <field name="tcp.option_kind" showname="Kind: Maximum Segment Size (2)" size="1" pos="44" show="2" value="02"/>
        <field name="tcp.option_len" showname="Length: 4" size="1" pos="45" show="4" value="04"/>
        <field name="tcp.options.mss_val" showname="MSS Value: 16344" size="2" pos="46" show="16344" value="3fd8"/>
      </field>
      <field name="tcp.options.nop" showname="TCP Option - No-Operation (NOP)" size="1" pos="48" show="01" value="01">
        <field name="tcp.option_kind" showname="Kind: No-Operation (1)" size="1" pos="48" show="1" value="01"/>
      </field>
      <field name="tcp.options.wscale" showname="TCP Option - Window scale: 6 (multiply by 64)" size="3" pos="49" show="03:03:06" value="030306">
        <field name="tcp.option_kind" showname="Kind: Window Scale (3)" size="1" pos="49" show="3" value="03"/>
        <field name="tcp.option_len" showname="Length: 3" size="1" pos="50" show="3" value="03"/>
        <field name="tcp.options.wscale.shift" showname="Shift count: 6" size="1" pos="51" show="6" value="06"/>
        <field name="tcp.options.wscale.multiplier" showname="Multiplier: 64" size="1" pos="51" show="64" value="06"/>
      </field>
      <field name="tcp.options.nop" showname="TCP Option - No-Operation (NOP)" size="1" pos="52" show="01" value="01">
        <field name="tcp.option_kind" showname="Kind: No-Operation (1)" size="1" pos="52" show="1" value="01"/>
      </field>
      <field name="tcp.options.nop" showname="TCP Option - No-Operation (NOP)" size="1" pos="53" show="01" value="01">
        <field name="tcp.option_kind" showname="Kind: No-Operation (1)" size="1" pos="53" show="1" value="01"/>
      </field>
      <field name="tcp.options.timestamp" showname="TCP Option - Timestamps: TSval 4140786732, TSecr 0" size="10" pos="54" show="08:0a:f6:cf:64:2c:00:00:00:00" value="080af6cf642c00000000">
        <field name="tcp.option_kind" showname="Kind: Time Stamp Option (8)" size="1" pos="54" show="8" value="08"/>
        <field name="tcp.option_len" showname="Length: 10" size="1" pos="55" show="10" value="0a"/>
        <field name="tcp.options.timestamp.tsval" showname="Timestamp value: 4140786732" size="4" pos="56" show="4140786732" value="f6cf642c"/>
        <field name="tcp.options.timestamp.tsecr" showname="Timestamp echo reply: 0" size="4" pos="60" show="0" value="00000000"/>
      </field>
      <field name="tcp.options.sack_perm" showname="TCP Option - SACK permitted" size="2" pos="64" show="04:02" value="0402">
        <field name="tcp.option_kind" showname="Kind: SACK Permitted (4)" size="1" pos="64" show="4" value="04"/>
        <field name="tcp.option_len" showname="Length: 2" size="1" pos="65" show="2" value="02"/>
      </field>
      <field name="tcp.options.eol" showname="TCP Option - End of Option List (EOL)" size="1" pos="66" show="00" value="00">
        <field name="tcp.option_kind" showname="Kind: End of Option List (0)" size="1" pos="66" show="0" value="00"/>
      </field>
      <field name="tcp.options.eol" showname="TCP Option - End of Option List (EOL)" size="1" pos="67" show="00" value="00">
        <field name="tcp.option_kind" showname="Kind: End of Option List (0)" size="1" pos="67" show="0" value="00"/>
      </field>
    </field>
    <field name="" show="Timestamps" size="0" pos="24">
      <field name="tcp.time_relative" showname="Time since first frame in this TCP stream: 0.000000000 seconds" size="0" pos="24" show="0.000000000"/>
      <field name="tcp.time_delta" showname="Time since previous frame in this TCP stream: 0.000000000 seconds" size="0" pos="24" show="0.000000000"/>
    </field>
    <field name="tcp.stream.client.contiguity_count" showname="Client Contiguous Streams: 0" size="0" pos="24" show="0"/>
    <field name="tcp.stream.server.contiguity_count" showname="Server Contiguous Streams: 1" size="0" pos="24" show="1"/>
  </proto>
</packet>


<packet>
  <proto name="geninfo" pos="0" showname="General information" size="68">
    <field name="num" pos="0" show="2" showname="Number" value="2" size="68"/>
    <field name="len" pos="0" show="68" showname="Frame Length" value="44" size="68"/>
    <field name="caplen" pos="0" show="68" showname="Captured Length" value="44" size="68"/>
    <field name="timestamp" pos="0" show="Sep 14, 2026 06:56:27.363835000 MSK" showname="Captured Time" value="1789358187.363835000" size="68"/>
  </proto>
  <proto name="frame" showname="Frame 2: Packet, 68 bytes on wire (544 bits), 68 bytes captured (544 bits) on interface lo0, id 0" size="68" pos="0">
    <field name="frame.section_number" showname="Section number: 1" size="0" pos="0" show="1"/>
    <field name="frame.interface_id" showname="Interface id: 0 (lo0)" size="0" pos="0" show="0">
      <field name="frame.interface_name" showname="Interface name: lo0" size="0" pos="0" show="lo0"/>
      <field name="frame.interface_description" showname="Interface description: Loopback" size="0" pos="0" show="Loopback"/>
    </field>
    <field name="frame.encap_type" showname="Encapsulation type: NULL/Loopback (15)" size="0" pos="0" show="15"/>
    <field name="frame.time" showname="Arrival Time: Sep 14, 2026 06:56:27.363835000 MSK" size="0" pos="0" show="2026-09-14T06:56:27.363835000+0300"/>
    <field name="frame.time_utc" showname="UTC Arrival Time: Sep 14, 2026 03:56:27.363835000 UTC" size="0" pos="0" show="2026-09-14T03:56:27.363835000Z"/>
    <field name="frame.time_epoch" showname="Epoch Arrival Time: 1789358187.363835000" size="0" pos="0" show="1789358187.363835000"/>
    <field name="frame.offset_shift" showname="Time shift for this packet: 0.000000000 seconds" size="0" pos="0" show="0.000000000"/>
    <field name="frame.time_delta" showname="Time delta from previous captured frame: 95.000 microseconds" size="0" pos="0" show="0.000095000"/>
    <field name="frame.time_delta_displayed" showname="Time delta from previous displayed frame: 95.000 microseconds" size="0" pos="0" show="0.000095000"/>
    <field name="frame.time_relative" showname="Time since reference or first frame: 95.000 microseconds" size="0" pos="0" show="0.000095000"/>
    <field name="frame.number" showname="Frame Number: 2" size="0" pos="0" show="2"/>
    <field name="frame.len" showname="Frame Length: 68 bytes (544 bits)" size="0" pos="0" show="68"/>
    <field name="frame.cap_len" showname="Capture Length: 68 bytes (544 bits)" size="0" pos="0" show="68"/>
    <field name="frame.marked" showname="Frame is marked: False" size="0" pos="0" show="False"/>
    <field name="frame.ignored" showname="Frame is ignored: False" size="0" pos="0" show="False"/>
    <field name="frame.protocols" showname="Protocols in frame: null:ip:tcp" size="0" pos="0" show="null:ip:tcp"/>
    <field name="frame.encoding" showname="Character encoding: ASCII (0)" size="0" pos="0" show="0"/>
  </proto>
  <proto name="null" showname="Null/Loopback" size="4" pos="0">
    <field name="null.family" showname="Family: IP (2)" size="4" pos="0" show="2" value="02000000"/>
  </proto>
  <proto name="ip" showname="Internet Protocol Version 4, Src: 127.0.0.1, Dst: 127.0.0.1" size="20" pos="4">
    <field name="ip.version" showname="0100 .... = Version: 4" size="1" pos="4" show="4" value="45"/>
    <field name="ip.hdr_len" showname=".... 0101 = Header Length: 20 bytes (5)" size="1" pos="4" show="20" value="45"/>
    <field name="ip.dsfield" showname="Differentiated Services Field: 0x00 (DSCP: CS0, ECN: Not-ECT)" size="1" pos="5" show="0x00" value="00">
      <field name="ip.dsfield.dscp" showname="0000 00.. = Differentiated Services Codepoint: Default (0)" size="1" pos="5" show="0" value="0" unmaskedvalue="00"/>
      <field name="ip.dsfield.ecn" showname=".... ..00 = Explicit Congestion Notification: Not ECN-Capable Transport (0)" size="1" pos="5" show="0" value="0" unmaskedvalue="00"/>
    </field>
    <field name="ip.len" showname="Total Length: 64" size="2" pos="6" show="64" value="0040"/>
    <field name="ip.id" showname="Identification: 0x0000 (0)" size="2" pos="8" show="0x0000" value="0000"/>
    <field name="ip.flags" showname="010. .... = Flags: 0x2, Don&#x27;t fragment" size="1" pos="10" show="0x02" value="2" unmaskedvalue="40">
      <field name="ip.flags.rb" showname="0... .... = Reserved bit: Not set" size="1" pos="10" show="False" value="0" unmaskedvalue="40"/>
      <field name="ip.flags.df" showname=".1.. .... = Don&#x27;t fragment: Set" size="1" pos="10" show="True" value="1" unmaskedvalue="40"/>
      <field name="ip.flags.mf" showname="..0. .... = More fragments: Not set" size="1" pos="10" show="False" value="0" unmaskedvalue="40"/>
    </field>
    <field name="ip.frag_offset" showname="...0 0000 0000 0000 = Fragment Offset: 0" size="2" pos="10" show="0" value="0" unmaskedvalue="4000"/>
    <field name="ip.ttl" showname="Time to Live: 64" size="1" pos="12" show="64" value="40"/>
    <field name="ip.proto" showname="Protocol: TCP (6)" size="1" pos="13" show="6" value="06"/>
    <field name="ip.checksum" showname="Header Checksum: 0x0000 [validation disabled]" size="2" pos="14" show="0x0000" value="0000"/>
    <field name="ip.checksum.status" showname="Header checksum status: Unverified" size="0" pos="14" show="2"/>
    <field name="ip.src" showname="Source Address: 127.0.0.1" size="4" pos="16" show="127.0.0.1" value="7f000001"/>
    <field name="ip.addr" showname="Source or Destination Address: 127.0.0.1" hide="yes" size="4" pos="16" show="127.0.0.1" value="7f000001"/>
    <field name="ip.src_host" showname="Source Host: 127.0.0.1" hide="yes" size="4" pos="16" show="127.0.0.1" value="7f000001"/>
    <field name="ip.host" showname="Source or Destination Host: 127.0.0.1" hide="yes" size="4" pos="16" show="127.0.0.1" value="7f000001"/>
    <field name="ip.dst" showname="Destination Address: 127.0.0.1" size="4" pos="20" show="127.0.0.1" value="7f000001"/>
    <field name="ip.addr" showname="Source or Destination Address: 127.0.0.1" hide="yes" size="4" pos="20" show="127.0.0.1" value="7f000001"/>
    <field name="ip.dst_host" showname="Destination Host: 127.0.0.1" hide="yes" size="4" pos="20" show="127.0.0.1" value="7f000001"/>
    <field name="ip.host" showname="Source or Destination Host: 127.0.0.1" hide="yes" size="4" pos="20" show="127.0.0.1" value="7f000001"/>
    <field name="ip.stream" showname="Stream index: 0" size="0" pos="24" show="0"/>
  </proto>
  <proto name="tcp" showname="Transmission Control Protocol, Src Port: 18123, Dst Port: 56100, Seq: 0, Ack: 1, Len: 0" size="44" pos="24">
    <field name="tcp.srcport" showname="Source Port: 18123" size="2" pos="24" show="18123" value="46cb"/>
    <field name="tcp.dstport" showname="Destination Port: 56100" size="2" pos="26" show="56100" value="db24"/>
    <field name="tcp.port" showname="Source or Destination Port: 18123" hide="yes" size="2" pos="24" show="18123" value="46cb"/>
    <field name="tcp.port" showname="Source or Destination Port: 56100" hide="yes" size="2" pos="26" show="56100" value="db24"/>
    <field name="tcp.stream" showname="Stream index: 0" size="0" pos="24" show="0"/>
    <field name="tcp.stream.pnum" showname="Stream Packet Number: 2" size="0" pos="24" show="2"/>
    <field name="tcp.completeness" showname="Conversation completeness: Incomplete, SYN_SENT (1)" size="0" pos="24" show="1">
      <field name="tcp.completeness.rst" showname="..0. .... = RST: Absent" size="0" pos="0" show="False"/>
      <field name="tcp.completeness.fin" showname="...0 .... = FIN: Absent" size="0" pos="0" show="False"/>
      <field name="tcp.completeness.data" showname=".... 0... = Data: Absent" size="0" pos="0" show="False"/>
      <field name="tcp.completeness.ack" showname=".... .0.. = ACK: Absent" size="0" pos="0" show="False"/>
      <field name="tcp.completeness.syn-ack" showname=".... ..0. = SYN-ACK: Absent" size="0" pos="0" show="False"/>
      <field name="tcp.completeness.syn" showname=".... ...1 = SYN: Present" size="0" pos="0" show="True"/>
      <field name="tcp.completeness.str" showname="Completeness Flags: ·····S" size="0" pos="24" show="·····S"/>
    </field>
    <field name="tcp.len" showname="TCP Segment Len: 0" size="0" pos="24" show="0"/>
    <field name="tcp.seq" showname="Sequence Number: 0    (relative sequence number)" size="4" pos="28" show="0" value="87698a46"/>
    <field name="tcp.seq_raw" showname="Sequence Number (raw): 2271840838" size="4" pos="28" show="2271840838" value="87698a46"/>
    <field name="tcp.nxtseq" showname="Next Sequence Number: 1    (relative sequence number)" size="0" pos="24" show="1"/>
    <field name="tcp.ack" showname="Acknowledgment Number: 1    (relative ack number)" size="4" pos="32" show="1" value="032b089b"/>
    <field name="tcp.ack_raw" showname="Acknowledgment number (raw): 53151899" size="4" pos="32" show="53151899" value="032b089b"/>
    <field name="tcp.hdr_len" showname="1011 .... = Header Length: 44 bytes (11)" size="1" pos="36" show="44" value="b0"/>
    <field name="tcp.flags" showname="Flags: 0x012 (SYN, ACK)" size="2" pos="36" show="0x0012" value="12" unmaskedvalue="b012">
      <field name="tcp.flags.res" showname="000. .... .... = Reserved: Not set" size="1" pos="36" show="False" value="0" unmaskedvalue="b0"/>
      <field name="tcp.flags.ae" showname="...0 .... .... = Accurate ECN: Not set" size="1" pos="36" show="False" value="0" unmaskedvalue="b0"/>
      <field name="tcp.flags.cwr" showname=".... 0... .... = Congestion Window Reduced: Not set" size="1" pos="37" show="False" value="0" unmaskedvalue="12"/>
      <field name="tcp.flags.ece" showname=".... .0.. .... = ECN-Echo: Not set" size="1" pos="37" show="False" value="0" unmaskedvalue="12"/>
      <field name="tcp.flags.urg" showname=".... ..0. .... = Urgent: Not set" size="1" pos="37" show="False" value="0" unmaskedvalue="12"/>
      <field name="tcp.flags.ack" showname=".... ...1 .... = Acknowledgment: Set" size="1" pos="37" show="True" value="1" unmaskedvalue="12"/>
      <field name="tcp.flags.push" showname=".... .... 0... = Push: Not set" size="1" pos="37" show="False" value="0" unmaskedvalue="12"/>
      <field name="tcp.flags.reset" showname=".... .... .0.. = Reset: Not set" size="1" pos="37" show="False" value="0" unmaskedvalue="12"/>
      <field name="tcp.flags.syn" showname=".... .... ..1. = Syn: Set" size="1" pos="37" show="True" value="1" unmaskedvalue="12">
        <field name="_ws.expert" showname="Expert Info (Chat/Sequence): Connection establish acknowledge (SYN+ACK): server port 18123" size="0" pos="37">
          <field name="tcp.connection.synack" showname="Connection establish acknowledge (SYN+ACK): server port 18123" size="0" pos="0" show="" value=""/>
          <field name="_ws.expert.message" showname="Message: Connection establish acknowledge (SYN+ACK): server port 18123" hide="yes" size="0" pos="0" show="Connection establish acknowledge (SYN+ACK): server port 18123"/>
          <field name="_ws.expert.severity" showname="Severity level: Chat" size="0" pos="0" show="2097152"/>
          <field name="_ws.expert.group" showname="Group: Sequence" size="0" pos="0" show="33554432"/>
        </field>
      </field>
      <field name="tcp.flags.fin" showname=".... .... ...0 = Fin: Not set" size="1" pos="37" show="False" value="0" unmaskedvalue="12"/>
      <field name="tcp.flags.str" showname="TCP Flags: ·······A··S·" size="2" pos="36" show="·······A··S·" value="b012"/>
    </field>
    <field name="tcp.window_size_value" showname="Window: 65535" size="2" pos="38" show="65535" value="ffff"/>
    <field name="tcp.window_size" showname="Calculated window size: 65535" size="2" pos="38" show="65535" value="ffff"/>
    <field name="tcp.checksum" showname="Checksum: 0xfe34 [unverified]" size="2" pos="40" show="0xfe34" value="fe34"/>
    <field name="tcp.checksum.status" showname="Checksum Status: Unverified" size="0" pos="40" show="2"/>
    <field name="tcp.urgent_pointer" showname="Urgent Pointer: 0" size="2" pos="42" show="0" value="0000"/>
    <field name="tcp.options" showname="Options: (24 bytes), Maximum segment size, No-Operation (NOP), Window scale, No-Operation (NOP), No-Operation (NOP), Timestamps, SACK permitted, End of Option List (EOL), End of Option List (EOL)" size="24" pos="44" show="02:04:3f:d8:01:03:03:06:01:01:08:0a:23:e9:ab:11:f6:cf:64:2c:04:02:00:00" value="02043fd8010303060101080a23e9ab11f6cf642c04020000">
      <field name="tcp.options.mss" showname="TCP Option - Maximum segment size: 16344 bytes" size="4" pos="44" show="02:04:3f:d8" value="02043fd8">
        <field name="tcp.option_kind" showname="Kind: Maximum Segment Size (2)" size="1" pos="44" show="2" value="02"/>
        <field name="tcp.option_len" showname="Length: 4" size="1" pos="45" show="4" value="04"/>
        <field name="tcp.options.mss_val" showname="MSS Value: 16344" size="2" pos="46" show="16344" value="3fd8"/>
      </field>
      <field name="tcp.options.nop" showname="TCP Option - No-Operation (NOP)" size="1" pos="48" show="01" value="01">
        <field name="tcp.option_kind" showname="Kind: No-Operation (1)" size="1" pos="48" show="1" value="01"/>
      </field>
      <field name="tcp.options.wscale" showname="TCP Option - Window scale: 6 (multiply by 64)" size="3" pos="49" show="03:03:06" value="030306">
        <field name="tcp.option_kind" showname="Kind: Window Scale (3)" size="1" pos="49" show="3" value="03"/>
        <field name="tcp.option_len" showname="Length: 3" size="1" pos="50" show="3" value="03"/>
        <field name="tcp.options.wscale.shift" showname="Shift count: 6" size="1" pos="51" show="6" value="06"/>
        <field name="tcp.options.wscale.multiplier" showname="Multiplier: 64" size="1" pos="51" show="64" value="06"/>
      </field>
      <field name="tcp.options.nop" showname="TCP Option - No-Operation (NOP)" size="1" pos="52" show="01" value="01">
        <field name="tcp.option_kind" showname="Kind: No-Operation (1)" size="1" pos="52" show="1" value="01"/>
      </field>
      <field name="tcp.options.nop" showname="TCP Option - No-Operation (NOP)" size="1" pos="53" show="01" value="01">
        <field name="tcp.option_kind" showname="Kind: No-Operation (1)" size="1" pos="53" show="1" value="01"/>
      </field>
      <field name="tcp.options.timestamp" showname="TCP Option - Timestamps: TSval 602516241, TSecr 4140786732" size="10" pos="54" show="08:0a:23:e9:ab:11:f6:cf:64:2c" value="080a23e9ab11f6cf642c">
        <field name="tcp.option_kind" showname="Kind: Time Stamp Option (8)" size="1" pos="54" show="8" value="08"/>
        <field name="tcp.option_len" showname="Length: 10" size="1" pos="55" show="10" value="0a"/>
        <field name="tcp.options.timestamp.tsval" showname="Timestamp value: 602516241" size="4" pos="56" show="602516241" value="23e9ab11"/>
        <field name="tcp.options.timestamp.tsecr" showname="Timestamp echo reply: 4140786732" size="4" pos="60" show="4140786732" value="f6cf642c"/>
      </field>
      <field name="tcp.options.sack_perm" showname="TCP Option - SACK permitted" size="2" pos="64" show="04:02" value="0402">
        <field name="tcp.option_kind" showname="Kind: SACK Permitted (4)" size="1" pos="64" show="4" value="04"/>
        <field name="tcp.option_len" showname="Length: 2" size="1" pos="65" show="2" value="02"/>
      </field>
      <field name="tcp.options.eol" showname="TCP Option - End of Option List (EOL)" size="1" pos="66" show="00" value="00">
        <field name="tcp.option_kind" showname="Kind: End of Option List (0)" size="1" pos="66" show="0" value="00"/>
      </field>
      <field name="tcp.options.eol" showname="TCP Option - End of Option List (EOL)" size="1" pos="67" show="00" value="00">
        <field name="tcp.option_kind" showname="Kind: End of Option List (0)" size="1" pos="67" show="0" value="00"/>
      </field>
    </field>
    <field name="" show="Timestamps" size="0" pos="24">
      <field name="tcp.time_relative" showname="Time since first frame in this TCP stream: 95.000 microseconds" size="0" pos="24" show="0.000095000"/>
      <field name="tcp.time_delta" showname="Time since previous frame in this TCP stream: 95.000 microseconds" size="0" pos="24" show="0.000095000"/>
    </field>
    <field name="tcp.analysis" showname="SEQ/ACK analysis" size="0" pos="24" show="" value="">
      <field name="tcp.analysis.acks_frame" showname="This is an ACK to the segment in frame: 1" size="0" pos="24" show="1"/>
      <field name="tcp.analysis.ack_rtt" showname="The RTT to ACK the segment was: 95.000 microseconds" size="0" pos="24" show="0.000095000"/>
    </field>
    <field name="tcp.stream.client.contiguity_count" showname="Client Contiguous Streams: 1" size="0" pos="24" show="1"/>
    <field name="tcp.stream.server.contiguity_count" showname="Server Contiguous Streams: 1" size="0" pos="24" show="1"/>
  </proto>
</packet>


<packet>
  <proto name="geninfo" pos="0" showname="General information" size="56">
    <field name="num" pos="0" show="3" showname="Number" value="3" size="56"/>
    <field name="len" pos="0" show="56" showname="Frame Length" value="38" size="56"/>
    <field name="caplen" pos="0" show="56" showname="Captured Length" value="38" size="56"/>
    <field name="timestamp" pos="0" show="Sep 14, 2026 06:56:27.363860000 MSK" showname="Captured Time" value="1789358187.363860000" size="56"/>
  </proto>
  <proto name="frame" showname="Frame 3: Packet, 56 bytes on wire (448 bits), 56 bytes captured (448 bits) on interface lo0, id 0" size="56" pos="0">
    <field name="frame.section_number" showname="Section number: 1" size="0" pos="0" show="1"/>
    <field name="frame.interface_id" showname="Interface id: 0 (lo0)" size="0" pos="0" show="0">
      <field name="frame.interface_name" showname="Interface name: lo0" size="0" pos="0" show="lo0"/>
      <field name="frame.interface_description" showname="Interface description: Loopback" size="0" pos="0" show="Loopback"/>
    </field>
    <field name="frame.encap_type" showname="Encapsulation type: NULL/Loopback (15)" size="0" pos="0" show="15"/>
    <field name="frame.time" showname="Arrival Time: Sep 14, 2026 06:56:27.363860000 MSK" size="0" pos="0" show="2026-09-14T06:56:27.363860000+0300"/>
    <field name="frame.time_utc" showname="UTC Arrival Time: Sep 14, 2026 03:56:27.363860000 UTC" size="0" pos="0" show="2026-09-14T03:56:27.363860000Z"/>
    <field name="frame.time_epoch" showname="Epoch Arrival Time: 1789358187.363860000" size="0" pos="0" show="1789358187.363860000"/>
    <field name="frame.offset_shift" showname="Time shift for this packet: 0.000000000 seconds" size="0" pos="0" show="0.000000000"/>
    <field name="frame.time_delta" showname="Time delta from previous captured frame: 25.000 microseconds" size="0" pos="0" show="0.000025000"/>
    <field name="frame.time_delta_displayed" showname="Time delta from previous displayed frame: 25.000 microseconds" size="0" pos="0" show="0.000025000"/>
    <field name="frame.time_relative" showname="Time since reference or first frame: 120.000 microseconds" size="0" pos="0" show="0.000120000"/>
    <field name="frame.number" showname="Frame Number: 3" size="0" pos="0" show="3"/>
    <field name="frame.len" showname="Frame Length: 56 bytes (448 bits)" size="0" pos="0" show="56"/>
    <field name="frame.cap_len" showname="Capture Length: 56 bytes (448 bits)" size="0" pos="0" show="56"/>
    <field name="frame.marked" showname="Frame is marked: False" size="0" pos="0" show="False"/>
    <field name="frame.ignored" showname="Frame is ignored: False" size="0" pos="0" show="False"/>
    <field name="frame.protocols" showname="Protocols in frame: null:ip:tcp" size="0" pos="0" show="null:ip:tcp"/>
    <field name="frame.encoding" showname="Character encoding: ASCII (0)" size="0" pos="0" show="0"/>
  </proto>
  <proto name="null" showname="Null/Loopback" size="4" pos="0">
    <field name="null.family" showname="Family: IP (2)" size="4" pos="0" show="2" value="02000000"/>
  </proto>
  <proto name="ip" showname="Internet Protocol Version 4, Src: 127.0.0.1, Dst: 127.0.0.1" size="20" pos="4">
    <field name="ip.version" showname="0100 .... = Version: 4" size="1" pos="4" show="4" value="45"/>
    <field name="ip.hdr_len" showname=".... 0101 = Header Length: 20 bytes (5)" size="1" pos="4" show="20" value="45"/>
    <field name="ip.dsfield" showname="Differentiated Services Field: 0x00 (DSCP: CS0, ECN: Not-ECT)" size="1" pos="5" show="0x00" value="00">
      <field name="ip.dsfield.dscp" showname="0000 00.. = Differentiated Services Codepoint: Default (0)" size="1" pos="5" show="0" value="0" unmaskedvalue="00"/>
      <field name="ip.dsfield.ecn" showname=".... ..00 = Explicit Congestion Notification: Not ECN-Capable Transport (0)" size="1" pos="5" show="0" value="0" unmaskedvalue="00"/>
    </field>
    <field name="ip.len" showname="Total Length: 52" size="2" pos="6" show="52" value="0034"/>
    <field name="ip.id" showname="Identification: 0x0000 (0)" size="2" pos="8" show="0x0000" value="0000"/>
    <field name="ip.flags" showname="010. .... = Flags: 0x2, Don&#x27;t fragment" size="1" pos="10" show="0x02" value="2" unmaskedvalue="40">
      <field name="ip.flags.rb" showname="0... .... = Reserved bit: Not set" size="1" pos="10" show="False" value="0" unmaskedvalue="40"/>
      <field name="ip.flags.df" showname=".1.. .... = Don&#x27;t fragment: Set" size="1" pos="10" show="True" value="1" unmaskedvalue="40"/>
      <field name="ip.flags.mf" showname="..0. .... = More fragments: Not set" size="1" pos="10" show="False" value="0" unmaskedvalue="40"/>
    </field>
    <field name="ip.frag_offset" showname="...0 0000 0000 0000 = Fragment Offset: 0" size="2" pos="10" show="0" value="0" unmaskedvalue="4000"/>
    <field name="ip.ttl" showname="Time to Live: 64" size="1" pos="12" show="64" value="40"/>
    <field name="ip.proto" showname="Protocol: TCP (6)" size="1" pos="13" show="6" value="06"/>
    <field name="ip.checksum" showname="Header Checksum: 0x0000 [validation disabled]" size="2" pos="14" show="0x0000" value="0000"/>
    <field name="ip.checksum.status" showname="Header checksum status: Unverified" size="0" pos="14" show="2"/>
    <field name="ip.src" showname="Source Address: 127.0.0.1" size="4" pos="16" show="127.0.0.1" value="7f000001"/>
    <field name="ip.addr" showname="Source or Destination Address: 127.0.0.1" hide="yes" size="4" pos="16" show="127.0.0.1" value="7f000001"/>
    <field name="ip.src_host" showname="Source Host: 127.0.0.1" hide="yes" size="4" pos="16" show="127.0.0.1" value="7f000001"/>
    <field name="ip.host" showname="Source or Destination Host: 127.0.0.1" hide="yes" size="4" pos="16" show="127.0.0.1" value="7f000001"/>
    <field name="ip.dst" showname="Destination Address: 127.0.0.1" size="4" pos="20" show="127.0.0.1" value="7f000001"/>
    <field name="ip.addr" showname="Source or Destination Address: 127.0.0.1" hide="yes" size="4" pos="20" show="127.0.0.1" value="7f000001"/>
    <field name="ip.dst_host" showname="Destination Host: 127.0.0.1" hide="yes" size="4" pos="20" show="127.0.0.1" value="7f000001"/>
    <field name="ip.host" showname="Source or Destination Host: 127.0.0.1" hide="yes" size="4" pos="20" show="127.0.0.1" value="7f000001"/>
    <field name="ip.stream" showname="Stream index: 0" size="0" pos="24" show="0"/>
  </proto>
  <proto name="tcp" showname="Transmission Control Protocol, Src Port: 56100, Dst Port: 18123, Seq: 1, Ack: 1, Len: 0" size="32" pos="24">
    <field name="tcp.srcport" showname="Source Port: 56100" size="2" pos="24" show="56100" value="db24"/>
    <field name="tcp.dstport" showname="Destination Port: 18123" size="2" pos="26" show="18123" value="46cb"/>
    <field name="tcp.port" showname="Source or Destination Port: 56100" hide="yes" size="2" pos="24" show="56100" value="db24"/>
    <field name="tcp.port" showname="Source or Destination Port: 18123" hide="yes" size="2" pos="26" show="18123" value="46cb"/>
    <field name="tcp.stream" showname="Stream index: 0" size="0" pos="24" show="0"/>
    <field name="tcp.stream.pnum" showname="Stream Packet Number: 3" size="0" pos="24" show="3"/>
    <field name="tcp.completeness" showname="Conversation completeness: Incomplete, CLIENT_ESTABLISHED (3)" size="0" pos="24" show="3">
      <field name="tcp.completeness.rst" showname="..0. .... = RST: Absent" size="0" pos="0" show="False"/>
      <field name="tcp.completeness.fin" showname="...0 .... = FIN: Absent" size="0" pos="0" show="False"/>
      <field name="tcp.completeness.data" showname=".... 0... = Data: Absent" size="0" pos="0" show="False"/>
      <field name="tcp.completeness.ack" showname=".... .0.. = ACK: Absent" size="0" pos="0" show="False"/>
      <field name="tcp.completeness.syn-ack" showname=".... ..1. = SYN-ACK: Present" size="0" pos="0" show="True"/>
      <field name="tcp.completeness.syn" showname=".... ...1 = SYN: Present" size="0" pos="0" show="True"/>
      <field name="tcp.completeness.str" showname="Completeness Flags: ····SS" size="0" pos="24" show="····SS"/>
    </field>
    <field name="tcp.len" showname="TCP Segment Len: 0" size="0" pos="24" show="0"/>
    <field name="tcp.seq" showname="Sequence Number: 1    (relative sequence number)" size="4" pos="28" show="1" value="032b089b"/>
    <field name="tcp.seq_raw" showname="Sequence Number (raw): 53151899" size="4" pos="28" show="53151899" value="032b089b"/>
    <field name="tcp.nxtseq" showname="Next Sequence Number: 1    (relative sequence number)" size="0" pos="24" show="1"/>
    <field name="tcp.ack" showname="Acknowledgment Number: 1    (relative ack number)" size="4" pos="32" show="1" value="87698a47"/>
    <field name="tcp.ack_raw" showname="Acknowledgment number (raw): 2271840839" size="4" pos="32" show="2271840839" value="87698a47"/>
    <field name="tcp.hdr_len" showname="1000 .... = Header Length: 32 bytes (8)" size="1" pos="36" show="32" value="80"/>
    <field name="tcp.flags" showname="Flags: 0x010 (ACK)" size="2" pos="36" show="0x0010" value="10" unmaskedvalue="8010">
      <field name="tcp.flags.res" showname="000. .... .... = Reserved: Not set" size="1" pos="36" show="False" value="0" unmaskedvalue="80"/>
      <field name="tcp.flags.ae" showname="...0 .... .... = Accurate ECN: Not set" size="1" pos="36" show="False" value="0" unmaskedvalue="80"/>
      <field name="tcp.flags.cwr" showname=".... 0... .... = Congestion Window Reduced: Not set" size="1" pos="37" show="False" value="0" unmaskedvalue="10"/>
      <field name="tcp.flags.ece" showname=".... .0.. .... = ECN-Echo: Not set" size="1" pos="37" show="False" value="0" unmaskedvalue="10"/>
      <field name="tcp.flags.urg" showname=".... ..0. .... = Urgent: Not set" size="1" pos="37" show="False" value="0" unmaskedvalue="10"/>
      <field name="tcp.flags.ack" showname=".... ...1 .... = Acknowledgment: Set" size="1" pos="37" show="True" value="1" unmaskedvalue="10"/>
      <field name="tcp.flags.push" showname=".... .... 0... = Push: Not set" size="1" pos="37" show="False" value="0" unmaskedvalue="10"/>
      <field name="tcp.flags.reset" showname=".... .... .0.. = Reset: Not set" size="1" pos="37" show="False" value="0" unmaskedvalue="10"/>
      <field name="tcp.flags.syn" showname=".... .... ..0. = Syn: Not set" size="1" pos="37" show="False" value="0" unmaskedvalue="10"/>
      <field name="tcp.flags.fin" showname=".... .... ...0 = Fin: Not set" size="1" pos="37" show="False" value="0" unmaskedvalue="10"/>
      <field name="tcp.flags.str" showname="TCP Flags: ·······A····" size="2" pos="36" show="·······A····" value="8010"/>
    </field>
    <field name="tcp.window_size_value" showname="Window: 6380" size="2" pos="38" show="6380" value="18ec"/>
    <field name="tcp.window_size" showname="Calculated window size: 408320" size="2" pos="38" show="408320" value="18ec"/>
    <field name="tcp.window_size_scalefactor" showname="Window size scaling factor: 64" size="2" pos="38" show="64" value="18ec"/>
    <field name="tcp.checksum" showname="Checksum: 0xfe28 [unverified]" size="2" pos="40" show="0xfe28" value="fe28"/>
    <field name="tcp.checksum.status" showname="Checksum Status: Unverified" size="0" pos="40" show="2"/>
    <field name="tcp.urgent_pointer" showname="Urgent Pointer: 0" size="2" pos="42" show="0" value="0000"/>
    <field name="tcp.options" showname="Options: (12 bytes), No-Operation (NOP), No-Operation (NOP), Timestamps" size="12" pos="44" show="01:01:08:0a:f6:cf:64:2c:23:e9:ab:11" value="0101080af6cf642c23e9ab11">
      <field name="tcp.options.nop" showname="TCP Option - No-Operation (NOP)" size="1" pos="44" show="01" value="01">
        <field name="tcp.option_kind" showname="Kind: No-Operation (1)" size="1" pos="44" show="1" value="01"/>
      </field>
      <field name="tcp.options.nop" showname="TCP Option - No-Operation (NOP)" size="1" pos="45" show="01" value="01">
        <field name="tcp.option_kind" showname="Kind: No-Operation (1)" size="1" pos="45" show="1" value="01"/>
      </field>
      <field name="tcp.options.timestamp" showname="TCP Option - Timestamps: TSval 4140786732, TSecr 602516241" size="10" pos="46" show="08:0a:f6:cf:64:2c:23:e9:ab:11" value="080af6cf642c23e9ab11">
        <field name="tcp.option_kind" showname="Kind: Time Stamp Option (8)" size="1" pos="46" show="8" value="08"/>
        <field name="tcp.option_len" showname="Length: 10" size="1" pos="47" show="10" value="0a"/>
        <field name="tcp.options.timestamp.tsval" showname="Timestamp value: 4140786732" size="4" pos="48" show="4140786732" value="f6cf642c"/>
        <field name="tcp.options.timestamp.tsecr" showname="Timestamp echo reply: 602516241" size="4" pos="52" show="602516241" value="23e9ab11"/>
      </field>
    </field>
    <field name="" show="Timestamps" size="0" pos="24">
      <field name="tcp.time_relative" showname="Time since first frame in this TCP stream: 120.000 microseconds" size="0" pos="24" show="0.000120000"/>
      <field name="tcp.time_delta" showname="Time since previous frame in this TCP stream: 25.000 microseconds" size="0" pos="24" show="0.000025000"/>
    </field>
    <field name="tcp.analysis" showname="SEQ/ACK analysis" size="0" pos="24" show="" value="">
      <field name="tcp.analysis.acks_frame" showname="This is an ACK to the segment in frame: 2" size="0" pos="24" show="2"/>
      <field name="tcp.analysis.ack_rtt" showname="The RTT to ACK the segment was: 25.000 microseconds" size="0" pos="24" show="0.000025000"/>
      <field name="tcp.analysis.initial_rtt" showname="iRTT: 120.000 microseconds" size="0" pos="24" show="0.000120000"/>
    </field>
    <field name="tcp.stream.client.contiguity_count" showname="Client Contiguous Streams: 1" size="0" pos="24" show="1"/>
    <field name="tcp.stream.server.contiguity_count" showname="Server Contiguous Streams: 1" size="0" pos="24" show="1"/>
  </proto>
</packet>


<packet>
  <proto name="geninfo" pos="0" showname="General information" size="56">
    <field name="num" pos="0" show="4" showname="Number" value="4" size="56"/>
    <field name="len" pos="0" show="56" showname="Frame Length" value="38" size="56"/>
    <field name="caplen" pos="0" show="56" showname="Captured Length" value="38" size="56"/>
    <field name="timestamp" pos="0" show="Sep 14, 2026 06:56:27.363876000 MSK" showname="Captured Time" value="1789358187.363876000" size="56"/>
  </proto>
  <proto name="frame" showname="Frame 4: Packet, 56 bytes on wire (448 bits), 56 bytes captured (448 bits) on interface lo0, id 0" size="56" pos="0">
    <field name="frame.section_number" showname="Section number: 1" size="0" pos="0" show="1"/>
    <field name="frame.interface_id" showname="Interface id: 0 (lo0)" size="0" pos="0" show="0">
      <field name="frame.interface_name" showname="Interface name: lo0" size="0" pos="0" show="lo0"/>
      <field name="frame.interface_description" showname="Interface description: Loopback" size="0" pos="0" show="Loopback"/>
    </field>
    <field name="frame.encap_type" showname="Encapsulation type: NULL/Loopback (15)" size="0" pos="0" show="15"/>
    <field name="frame.time" showname="Arrival Time: Sep 14, 2026 06:56:27.363876000 MSK" size="0" pos="0" show="2026-09-14T06:56:27.363876000+0300"/>
    <field name="frame.time_utc" showname="UTC Arrival Time: Sep 14, 2026 03:56:27.363876000 UTC" size="0" pos="0" show="2026-09-14T03:56:27.363876000Z"/>
    <field name="frame.time_epoch" showname="Epoch Arrival Time: 1789358187.363876000" size="0" pos="0" show="1789358187.363876000"/>
    <field name="frame.offset_shift" showname="Time shift for this packet: 0.000000000 seconds" size="0" pos="0" show="0.000000000"/>
    <field name="frame.time_delta" showname="Time delta from previous captured frame: 16.000 microseconds" size="0" pos="0" show="0.000016000"/>
    <field name="frame.time_delta_displayed" showname="Time delta from previous displayed frame: 16.000 microseconds" size="0" pos="0" show="0.000016000"/>
    <field name="frame.time_relative" showname="Time since reference or first frame: 136.000 microseconds" size="0" pos="0" show="0.000136000"/>
    <field name="frame.number" showname="Frame Number: 4" size="0" pos="0" show="4"/>
    <field name="frame.len" showname="Frame Length: 56 bytes (448 bits)" size="0" pos="0" show="56"/>
    <field name="frame.cap_len" showname="Capture Length: 56 bytes (448 bits)" size="0" pos="0" show="56"/>
    <field name="frame.marked" showname="Frame is marked: False" size="0" pos="0" show="False"/>
    <field name="frame.ignored" showname="Frame is ignored: False" size="0" pos="0" show="False"/>
    <field name="frame.protocols" showname="Protocols in frame: null:ip:tcp" size="0" pos="0" show="null:ip:tcp"/>
    <field name="frame.encoding" showname="Character encoding: ASCII (0)" size="0" pos="0" show="0"/>
  </proto>
  <proto name="null" showname="Null/Loopback" size="4" pos="0">
    <field name="null.family" showname="Family: IP (2)" size="4" pos="0" show="2" value="02000000"/>
  </proto>
  <proto name="ip" showname="Internet Protocol Version 4, Src: 127.0.0.1, Dst: 127.0.0.1" size="20" pos="4">
    <field name="ip.version" showname="0100 .... = Version: 4" size="1" pos="4" show="4" value="45"/>
    <field name="ip.hdr_len" showname=".... 0101 = Header Length: 20 bytes (5)" size="1" pos="4" show="20" value="45"/>
    <field name="ip.dsfield" showname="Differentiated Services Field: 0x00 (DSCP: CS0, ECN: Not-ECT)" size="1" pos="5" show="0x00" value="00">
      <field name="ip.dsfield.dscp" showname="0000 00.. = Differentiated Services Codepoint: Default (0)" size="1" pos="5" show="0" value="0" unmaskedvalue="00"/>
      <field name="ip.dsfield.ecn" showname=".... ..00 = Explicit Congestion Notification: Not ECN-Capable Transport (0)" size="1" pos="5" show="0" value="0" unmaskedvalue="00"/>
    </field>
    <field name="ip.len" showname="Total Length: 52" size="2" pos="6" show="52" value="0034"/>
    <field name="ip.id" showname="Identification: 0x0000 (0)" size="2" pos="8" show="0x0000" value="0000"/>
    <field name="ip.flags" showname="010. .... = Flags: 0x2, Don&#x27;t fragment" size="1" pos="10" show="0x02" value="2" unmaskedvalue="40">
      <field name="ip.flags.rb" showname="0... .... = Reserved bit: Not set" size="1" pos="10" show="False" value="0" unmaskedvalue="40"/>
      <field name="ip.flags.df" showname=".1.. .... = Don&#x27;t fragment: Set" size="1" pos="10" show="True" value="1" unmaskedvalue="40"/>
      <field name="ip.flags.mf" showname="..0. .... = More fragments: Not set" size="1" pos="10" show="False" value="0" unmaskedvalue="40"/>
    </field>
    <field name="ip.frag_offset" showname="...0 0000 0000 0000 = Fragment Offset: 0" size="2" pos="10" show="0" value="0" unmaskedvalue="4000"/>
    <field name="ip.ttl" showname="Time to Live: 64" size="1" pos="12" show="64" value="40"/>
    <field name="ip.proto" showname="Protocol: TCP (6)" size="1" pos="13" show="6" value="06"/>
    <field name="ip.checksum" showname="Header Checksum: 0x0000 [validation disabled]" size="2" pos="14" show="0x0000" value="0000"/>
    <field name="ip.checksum.status" showname="Header checksum status: Unverified" size="0" pos="14" show="2"/>
    <field name="ip.src" showname="Source Address: 127.0.0.1" size="4" pos="16" show="127.0.0.1" value="7f000001"/>
    <field name="ip.addr" showname="Source or Destination Address: 127.0.0.1" hide="yes" size="4" pos="16" show="127.0.0.1" value="7f000001"/>
    <field name="ip.src_host" showname="Source Host: 127.0.0.1" hide="yes" size="4" pos="16" show="127.0.0.1" value="7f000001"/>
    <field name="ip.host" showname="Source or Destination Host: 127.0.0.1" hide="yes" size="4" pos="16" show="127.0.0.1" value="7f000001"/>
    <field name="ip.dst" showname="Destination Address: 127.0.0.1" size="4" pos="20" show="127.0.0.1" value="7f000001"/>
    <field name="ip.addr" showname="Source or Destination Address: 127.0.0.1" hide="yes" size="4" pos="20" show="127.0.0.1" value="7f000001"/>
    <field name="ip.dst_host" showname="Destination Host: 127.0.0.1" hide="yes" size="4" pos="20" show="127.0.0.1" value="7f000001"/>
    <field name="ip.host" showname="Source or Destination Host: 127.0.0.1" hide="yes" size="4" pos="20" show="127.0.0.1" value="7f000001"/>
    <field name="ip.stream" showname="Stream index: 0" size="0" pos="24" show="0"/>
  </proto>
  <proto name="tcp" showname="Transmission Control Protocol, Src Port: 18123, Dst Port: 56100, Seq: 1, Ack: 1, Len: 0" size="32" pos="24">
    <field name="tcp.srcport" showname="Source Port: 18123" size="2" pos="24" show="18123" value="46cb"/>
    <field name="tcp.dstport" showname="Destination Port: 56100" size="2" pos="26" show="56100" value="db24"/>
    <field name="tcp.port" showname="Source or Destination Port: 18123" hide="yes" size="2" pos="24" show="18123" value="46cb"/>
    <field name="tcp.port" showname="Source or Destination Port: 56100" hide="yes" size="2" pos="26" show="56100" value="db24"/>
    <field name="tcp.stream" showname="Stream index: 0" size="0" pos="24" show="0"/>
    <field name="tcp.stream.pnum" showname="Stream Packet Number: 4" size="0" pos="24" show="4"/>
    <field name="tcp.completeness" showname="Conversation completeness: Incomplete, ESTABLISHED (7)" size="0" pos="24" show="7">
      <field name="tcp.completeness.rst" showname="..0. .... = RST: Absent" size="0" pos="0" show="False"/>
      <field name="tcp.completeness.fin" showname="...0 .... = FIN: Absent" size="0" pos="0" show="False"/>
      <field name="tcp.completeness.data" showname=".... 0... = Data: Absent" size="0" pos="0" show="False"/>
      <field name="tcp.completeness.ack" showname=".... .1.. = ACK: Present" size="0" pos="0" show="True"/>
      <field name="tcp.completeness.syn-ack" showname=".... ..1. = SYN-ACK: Present" size="0" pos="0" show="True"/>
      <field name="tcp.completeness.syn" showname=".... ...1 = SYN: Present" size="0" pos="0" show="True"/>
      <field name="tcp.completeness.str" showname="Completeness Flags: ···ASS" size="0" pos="24" show="···ASS"/>
    </field>
    <field name="tcp.len" showname="TCP Segment Len: 0" size="0" pos="24" show="0"/>
    <field name="tcp.seq" showname="Sequence Number: 1    (relative sequence number)" size="4" pos="28" show="1" value="87698a47"/>
    <field name="tcp.seq_raw" showname="Sequence Number (raw): 2271840839" size="4" pos="28" show="2271840839" value="87698a47"/>
    <field name="tcp.nxtseq" showname="Next Sequence Number: 1    (relative sequence number)" size="0" pos="24" show="1"/>
    <field name="tcp.ack" showname="Acknowledgment Number: 1    (relative ack number)" size="4" pos="32" show="1" value="032b089b"/>
    <field name="tcp.ack_raw" showname="Acknowledgment number (raw): 53151899" size="4" pos="32" show="53151899" value="032b089b"/>
    <field name="tcp.hdr_len" showname="1000 .... = Header Length: 32 bytes (8)" size="1" pos="36" show="32" value="80"/>
    <field name="tcp.flags" showname="Flags: 0x010 (ACK)" size="2" pos="36" show="0x0010" value="10" unmaskedvalue="8010">
      <field name="tcp.flags.res" showname="000. .... .... = Reserved: Not set" size="1" pos="36" show="False" value="0" unmaskedvalue="80"/>
      <field name="tcp.flags.ae" showname="...0 .... .... = Accurate ECN: Not set" size="1" pos="36" show="False" value="0" unmaskedvalue="80"/>
      <field name="tcp.flags.cwr" showname=".... 0... .... = Congestion Window Reduced: Not set" size="1" pos="37" show="False" value="0" unmaskedvalue="10"/>
      <field name="tcp.flags.ece" showname=".... .0.. .... = ECN-Echo: Not set" size="1" pos="37" show="False" value="0" unmaskedvalue="10"/>
      <field name="tcp.flags.urg" showname=".... ..0. .... = Urgent: Not set" size="1" pos="37" show="False" value="0" unmaskedvalue="10"/>
      <field name="tcp.flags.ack" showname=".... ...1 .... = Acknowledgment: Set" size="1" pos="37" show="True" value="1" unmaskedvalue="10"/>
      <field name="tcp.flags.push" showname=".... .... 0... = Push: Not set" size="1" pos="37" show="False" value="0" unmaskedvalue="10"/>
      <field name="tcp.flags.reset" showname=".... .... .0.. = Reset: Not set" size="1" pos="37" show="False" value="0" unmaskedvalue="10"/>
      <field name="tcp.flags.syn" showname=".... .... ..0. = Syn: Not set" size="1" pos="37" show="False" value="0" unmaskedvalue="10"/>
      <field name="tcp.flags.fin" showname=".... .... ...0 = Fin: Not set" size="1" pos="37" show="False" value="0" unmaskedvalue="10"/>
      <field name="tcp.flags.str" showname="TCP Flags: ·······A····" size="2" pos="36" show="·······A····" value="8010"/>
    </field>
    <field name="tcp.window_size_value" showname="Window: 6380" size="2" pos="38" show="6380" value="18ec"/>
    <field name="tcp.window_size" showname="Calculated window size: 408320" size="2" pos="38" show="408320" value="18ec"/>
    <field name="tcp.window_size_scalefactor" showname="Window size scaling factor: 64" size="2" pos="38" show="64" value="18ec"/>
    <field name="tcp.checksum" showname="Checksum: 0xfe28 [unverified]" size="2" pos="40" show="0xfe28" value="fe28"/>
    <field name="tcp.checksum.status" showname="Checksum Status: Unverified" size="0" pos="40" show="2"/>
    <field name="tcp.urgent_pointer" showname="Urgent Pointer: 0" size="2" pos="42" show="0" value="0000"/>
    <field name="tcp.options" showname="Options: (12 bytes), No-Operation (NOP), No-Operation (NOP), Timestamps" size="12" pos="44" show="01:01:08:0a:23:e9:ab:11:f6:cf:64:2c" value="0101080a23e9ab11f6cf642c">
      <field name="tcp.options.nop" showname="TCP Option - No-Operation (NOP)" size="1" pos="44" show="01" value="01">
        <field name="tcp.option_kind" showname="Kind: No-Operation (1)" size="1" pos="44" show="1" value="01"/>
      </field>
      <field name="tcp.options.nop" showname="TCP Option - No-Operation (NOP)" size="1" pos="45" show="01" value="01">
        <field name="tcp.option_kind" showname="Kind: No-Operation (1)" size="1" pos="45" show="1" value="01"/>
      </field>
      <field name="tcp.options.timestamp" showname="TCP Option - Timestamps: TSval 602516241, TSecr 4140786732" size="10" pos="46" show="08:0a:23:e9:ab:11:f6:cf:64:2c" value="080a23e9ab11f6cf642c">
        <field name="tcp.option_kind" showname="Kind: Time Stamp Option (8)" size="1" pos="46" show="8" value="08"/>
        <field name="tcp.option_len" showname="Length: 10" size="1" pos="47" show="10" value="0a"/>
        <field name="tcp.options.timestamp.tsval" showname="Timestamp value: 602516241" size="4" pos="48" show="602516241" value="23e9ab11"/>
        <field name="tcp.options.timestamp.tsecr" showname="Timestamp echo reply: 4140786732" size="4" pos="52" show="4140786732" value="f6cf642c"/>
      </field>
    </field>
    <field name="" show="Timestamps" size="0" pos="24">
      <field name="tcp.time_relative" showname="Time since first frame in this TCP stream: 136.000 microseconds" size="0" pos="24" show="0.000136000"/>
      <field name="tcp.time_delta" showname="Time since previous frame in this TCP stream: 16.000 microseconds" size="0" pos="24" show="0.000016000"/>
    </field>
    <field name="tcp.analysis" showname="SEQ/ACK analysis" size="0" pos="24" show="" value="">
      <field name="tcp.analysis.initial_rtt" showname="iRTT: 120.000 microseconds" size="0" pos="24" show="0.000120000"/>
      <field name="tcp.analysis.flags" showname="TCP Analysis Flags" size="0" pos="24" show="" value="">
        <field name="_ws.expert" showname="Expert Info (Chat/Sequence): TCP window update" size="0" pos="24">
          <field name="tcp.analysis.window_update" showname="TCP window update" size="0" pos="0" show="" value=""/>
          <field name="_ws.expert.message" showname="Message: TCP window update" hide="yes" size="0" pos="0" show="TCP window update"/>
          <field name="_ws.expert.severity" showname="Severity level: Chat" size="0" pos="0" show="2097152"/>
          <field name="_ws.expert.group" showname="Group: Sequence" size="0" pos="0" show="33554432"/>
        </field>
      </field>
    </field>
    <field name="tcp.stream.client.contiguity_count" showname="Client Contiguous Streams: 1" size="0" pos="24" show="1"/>
    <field name="tcp.stream.server.contiguity_count" showname="Server Contiguous Streams: 1" size="0" pos="24" show="1"/>
  </proto>
</packet>


<packet>
  <proto name="geninfo" pos="0" showname="General information" size="500">
    <field name="num" pos="0" show="5" showname="Number" value="5" size="500"/>
    <field name="len" pos="0" show="500" showname="Frame Length" value="1f4" size="500"/>
    <field name="caplen" pos="0" show="500" showname="Captured Length" value="1f4" size="500"/>
    <field name="timestamp" pos="0" show="Sep 14, 2026 06:56:27.364641000 MSK" showname="Captured Time" value="1789358187.364641000" size="500"/>
  </proto>
  <proto name="frame" showname="Frame 5: Packet, 500 bytes on wire (4000 bits), 500 bytes captured (4000 bits) on interface lo0, id 0" size="500" pos="0">
    <field name="frame.section_number" showname="Section number: 1" size="0" pos="0" show="1"/>
    <field name="frame.interface_id" showname="Interface id: 0 (lo0)" size="0" pos="0" show="0">
      <field name="frame.interface_name" showname="Interface name: lo0" size="0" pos="0" show="lo0"/>
      <field name="frame.interface_description" showname="Interface description: Loopback" size="0" pos="0" show="Loopback"/>
    </field>
    <field name="frame.encap_type" showname="Encapsulation type: NULL/Loopback (15)" size="0" pos="0" show="15"/>
    <field name="frame.time" showname="Arrival Time: Sep 14, 2026 06:56:27.364641000 MSK" size="0" pos="0" show="2026-09-14T06:56:27.364641000+0300"/>
    <field name="frame.time_utc" showname="UTC Arrival Time: Sep 14, 2026 03:56:27.364641000 UTC" size="0" pos="0" show="2026-09-14T03:56:27.364641000Z"/>
    <field name="frame.time_epoch" showname="Epoch Arrival Time: 1789358187.364641000" size="0" pos="0" show="1789358187.364641000"/>
    <field name="frame.offset_shift" showname="Time shift for this packet: 0.000000000 seconds" size="0" pos="0" show="0.000000000"/>
    <field name="frame.time_delta" showname="Time delta from previous captured frame: 765.000 microseconds" size="0" pos="0" show="0.000765000"/>
    <field name="frame.time_delta_displayed" showname="Time delta from previous displayed frame: 765.000 microseconds" size="0" pos="0" show="0.000765000"/>
    <field name="frame.time_relative" showname="Time since reference or first frame: 901.000 microseconds" size="0" pos="0" show="0.000901000"/>
    <field name="frame.number" showname="Frame Number: 5" size="0" pos="0" show="5"/>
    <field name="frame.len" showname="Frame Length: 500 bytes (4000 bits)" size="0" pos="0" show="500"/>
    <field name="frame.cap_len" showname="Capture Length: 500 bytes (4000 bits)" size="0" pos="0" show="500"/>
    <field name="frame.marked" showname="Frame is marked: False" size="0" pos="0" show="False"/>
    <field name="frame.ignored" showname="Frame is ignored: False" size="0" pos="0" show="False"/>
    <field name="frame.protocols" showname="Protocols in frame: null:ip:tcp:http:data" size="0" pos="0" show="null:ip:tcp:http:data"/>
    <field name="frame.encoding" showname="Character encoding: ASCII (0)" size="0" pos="0" show="0"/>
  </proto>
  <proto name="null" showname="Null/Loopback" size="4" pos="0">
    <field name="null.family" showname="Family: IP (2)" size="4" pos="0" show="2" value="02000000"/>
  </proto>
  <proto name="ip" showname="Internet Protocol Version 4, Src: 127.0.0.1, Dst: 127.0.0.1" size="20" pos="4">
    <field name="ip.version" showname="0100 .... = Version: 4" size="1" pos="4" show="4" value="45"/>
    <field name="ip.hdr_len" showname=".... 0101 = Header Length: 20 bytes (5)" size="1" pos="4" show="20" value="45"/>
    <field name="ip.dsfield" showname="Differentiated Services Field: 0x00 (DSCP: CS0, ECN: Not-ECT)" size="1" pos="5" show="0x00" value="00">
      <field name="ip.dsfield.dscp" showname="0000 00.. = Differentiated Services Codepoint: Default (0)" size="1" pos="5" show="0" value="0" unmaskedvalue="00"/>
      <field name="ip.dsfield.ecn" showname=".... ..00 = Explicit Congestion Notification: Not ECN-Capable Transport (0)" size="1" pos="5" show="0" value="0" unmaskedvalue="00"/>
    </field>
    <field name="ip.len" showname="Total Length: 496" size="2" pos="6" show="496" value="01f0"/>
    <field name="ip.id" showname="Identification: 0x0000 (0)" size="2" pos="8" show="0x0000" value="0000"/>
    <field name="ip.flags" showname="010. .... = Flags: 0x2, Don&#x27;t fragment" size="1" pos="10" show="0x02" value="2" unmaskedvalue="40">
      <field name="ip.flags.rb" showname="0... .... = Reserved bit: Not set" size="1" pos="10" show="False" value="0" unmaskedvalue="40"/>
      <field name="ip.flags.df" showname=".1.. .... = Don&#x27;t fragment: Set" size="1" pos="10" show="True" value="1" unmaskedvalue="40"/>
      <field name="ip.flags.mf" showname="..0. .... = More fragments: Not set" size="1" pos="10" show="False" value="0" unmaskedvalue="40"/>
    </field>
    <field name="ip.frag_offset" showname="...0 0000 0000 0000 = Fragment Offset: 0" size="2" pos="10" show="0" value="0" unmaskedvalue="4000"/>
    <field name="ip.ttl" showname="Time to Live: 64" size="1" pos="12" show="64" value="40"/>
    <field name="ip.proto" showname="Protocol: TCP (6)" size="1" pos="13" show="6" value="06"/>
    <field name="ip.checksum" showname="Header Checksum: 0x0000 [validation disabled]" size="2" pos="14" show="0x0000" value="0000"/>
    <field name="ip.checksum.status" showname="Header checksum status: Unverified" size="0" pos="14" show="2"/>
    <field name="ip.src" showname="Source Address: 127.0.0.1" size="4" pos="16" show="127.0.0.1" value="7f000001"/>
    <field name="ip.addr" showname="Source or Destination Address: 127.0.0.1" hide="yes" size="4" pos="16" show="127.0.0.1" value="7f000001"/>
    <field name="ip.src_host" showname="Source Host: 127.0.0.1" hide="yes" size="4" pos="16" show="127.0.0.1" value="7f000001"/>
    <field name="ip.host" showname="Source or Destination Host: 127.0.0.1" hide="yes" size="4" pos="16" show="127.0.0.1" value="7f000001"/>
    <field name="ip.dst" showname="Destination Address: 127.0.0.1" size="4" pos="20" show="127.0.0.1" value="7f000001"/>
    <field name="ip.addr" showname="Source or Destination Address: 127.0.0.1" hide="yes" size="4" pos="20" show="127.0.0.1" value="7f000001"/>
    <field name="ip.dst_host" showname="Destination Host: 127.0.0.1" hide="yes" size="4" pos="20" show="127.0.0.1" value="7f000001"/>
    <field name="ip.host" showname="Source or Destination Host: 127.0.0.1" hide="yes" size="4" pos="20" show="127.0.0.1" value="7f000001"/>
    <field name="ip.stream" showname="Stream index: 0" size="0" pos="24" show="0"/>
  </proto>
  <proto name="tcp" showname="Transmission Control Protocol, Src Port: 56100, Dst Port: 18123, Seq: 1, Ack: 1, Len: 444" size="32" pos="24">
    <field name="tcp.srcport" showname="Source Port: 56100" size="2" pos="24" show="56100" value="db24"/>
    <field name="tcp.dstport" showname="Destination Port: 18123" size="2" pos="26" show="18123" value="46cb"/>
    <field name="tcp.port" showname="Source or Destination Port: 56100" hide="yes" size="2" pos="24" show="56100" value="db24"/>
    <field name="tcp.port" showname="Source or Destination Port: 18123" hide="yes" size="2" pos="26" show="18123" value="46cb"/>
    <field name="tcp.stream" showname="Stream index: 0" size="0" pos="24" show="0"/>
    <field name="tcp.stream.pnum" showname="Stream Packet Number: 5" size="0" pos="24" show="5"/>
    <field name="tcp.completeness" showname="Conversation completeness: Incomplete, ESTABLISHED (7)" size="0" pos="24" show="7">
      <field name="tcp.completeness.rst" showname="..0. .... = RST: Absent" size="0" pos="0" show="False"/>
      <field name="tcp.completeness.fin" showname="...0 .... = FIN: Absent" size="0" pos="0" show="False"/>
      <field name="tcp.completeness.data" showname=".... 0... = Data: Absent" size="0" pos="0" show="False"/>
      <field name="tcp.completeness.ack" showname=".... .1.. = ACK: Present" size="0" pos="0" show="True"/>
      <field name="tcp.completeness.syn-ack" showname=".... ..1. = SYN-ACK: Present" size="0" pos="0" show="True"/>
      <field name="tcp.completeness.syn" showname=".... ...1 = SYN: Present" size="0" pos="0" show="True"/>
      <field name="tcp.completeness.str" showname="Completeness Flags: ···ASS" size="0" pos="24" show="···ASS"/>
    </field>
    <field name="tcp.len" showname="TCP Segment Len: 444" size="0" pos="24" show="444"/>
    <field name="tcp.seq" showname="Sequence Number: 1    (relative sequence number)" size="4" pos="28" show="1" value="032b089b"/>
    <field name="tcp.seq_raw" showname="Sequence Number (raw): 53151899" size="4" pos="28" show="53151899" value="032b089b"/>
    <field name="tcp.nxtseq" showname="Next Sequence Number: 445    (relative sequence number)" size="0" pos="24" show="445"/>
    <field name="tcp.ack" showname="Acknowledgment Number: 1    (relative ack number)" size="4" pos="32" show="1" value="87698a47"/>
    <field name="tcp.ack_raw" showname="Acknowledgment number (raw): 2271840839" size="4" pos="32" show="2271840839" value="87698a47"/>
    <field name="tcp.hdr_len" showname="1000 .... = Header Length: 32 bytes (8)" size="1" pos="36" show="32" value="80"/>
    <field name="tcp.flags" showname="Flags: 0x018 (PSH, ACK)" size="2" pos="36" show="0x0018" value="18" unmaskedvalue="8018">
      <field name="tcp.flags.res" showname="000. .... .... = Reserved: Not set" size="1" pos="36" show="False" value="0" unmaskedvalue="80"/>
      <field name="tcp.flags.ae" showname="...0 .... .... = Accurate ECN: Not set" size="1" pos="36" show="False" value="0" unmaskedvalue="80"/>
      <field name="tcp.flags.cwr" showname=".... 0... .... = Congestion Window Reduced: Not set" size="1" pos="37" show="False" value="0" unmaskedvalue="18"/>
      <field name="tcp.flags.ece" showname=".... .0.. .... = ECN-Echo: Not set" size="1" pos="37" show="False" value="0" unmaskedvalue="18"/>
      <field name="tcp.flags.urg" showname=".... ..0. .... = Urgent: Not set" size="1" pos="37" show="False" value="0" unmaskedvalue="18"/>
      <field name="tcp.flags.ack" showname=".... ...1 .... = Acknowledgment: Set" size="1" pos="37" show="True" value="1" unmaskedvalue="18"/>
      <field name="tcp.flags.push" showname=".... .... 1... = Push: Set" size="1" pos="37" show="True" value="1" unmaskedvalue="18"/>
      <field name="tcp.flags.reset" showname=".... .... .0.. = Reset: Not set" size="1" pos="37" show="False" value="0" unmaskedvalue="18"/>
      <field name="tcp.flags.syn" showname=".... .... ..0. = Syn: Not set" size="1" pos="37" show="False" value="0" unmaskedvalue="18"/>
      <field name="tcp.flags.fin" showname=".... .... ...0 = Fin: Not set" size="1" pos="37" show="False" value="0" unmaskedvalue="18"/>
      <field name="tcp.flags.str" showname="TCP Flags: ·······AP···" size="2" pos="36" show="·······AP···" value="8018"/>
    </field>
    <field name="tcp.window_size_value" showname="Window: 6380" size="2" pos="38" show="6380" value="18ec"/>
    <field name="tcp.window_size" showname="Calculated window size: 408320" size="2" pos="38" show="408320" value="18ec"/>
    <field name="tcp.window_size_scalefactor" showname="Window size scaling factor: 64" size="2" pos="38" show="64" value="18ec"/>
    <field name="tcp.checksum" showname="Checksum: 0xffe4 [unverified]" size="2" pos="40" show="0xffe4" value="ffe4"/>
    <field name="tcp.checksum.status" showname="Checksum Status: Unverified" size="0" pos="40" show="2"/>
    <field name="tcp.urgent_pointer" showname="Urgent Pointer: 0" size="2" pos="42" show="0" value="0000"/>
    <field name="tcp.options" showname="Options: (12 bytes), No-Operation (NOP), No-Operation (NOP), Timestamps" size="12" pos="44" show="01:01:08:0a:f6:cf:64:2d:23:e9:ab:11" value="0101080af6cf642d23e9ab11">
      <field name="tcp.options.nop" showname="TCP Option - No-Operation (NOP)" size="1" pos="44" show="01" value="01">
        <field name="tcp.option_kind" showname="Kind: No-Operation (1)" size="1" pos="44" show="1" value="01"/>
      </field>
      <field name="tcp.options.nop" showname="TCP Option - No-Operation (NOP)" size="1" pos="45" show="01" value="01">
        <field name="tcp.option_kind" showname="Kind: No-Operation (1)" size="1" pos="45" show="1" value="01"/>
      </field>
      <field name="tcp.options.timestamp" showname="TCP Option - Timestamps: TSval 4140786733, TSecr 602516241" size="10" pos="46" show="08:0a:f6:cf:64:2d:23:e9:ab:11" value="080af6cf642d23e9ab11">
        <field name="tcp.option_kind" showname="Kind: Time Stamp Option (8)" size="1" pos="46" show="8" value="08"/>
        <field name="tcp.option_len" showname="Length: 10" size="1" pos="47" show="10" value="0a"/>
        <field name="tcp.options.timestamp.tsval" showname="Timestamp value: 4140786733" size="4" pos="48" show="4140786733" value="f6cf642d"/>
        <field name="tcp.options.timestamp.tsecr" showname="Timestamp echo reply: 602516241" size="4" pos="52" show="602516241" value="23e9ab11"/>
      </field>
    </field>
    <field name="" show="Timestamps" size="0" pos="24">
      <field name="tcp.time_relative" showname="Time since first frame in this TCP stream: 901.000 microseconds" size="0" pos="24" show="0.000901000"/>
      <field name="tcp.time_delta" showname="Time since previous frame in this TCP stream: 765.000 microseconds" size="0" pos="24" show="0.000765000"/>
    </field>
    <field name="tcp.analysis" showname="SEQ/ACK analysis" size="0" pos="24" show="" value="">
      <field name="tcp.analysis.initial_rtt" showname="iRTT: 120.000 microseconds" size="0" pos="24" show="0.000120000"/>
      <field name="tcp.analysis.bytes_in_flight" showname="Bytes in flight: 444" size="0" pos="24" show="444"/>
      <field name="tcp.analysis.push_bytes_sent" showname="Bytes sent since last PSH flag: 444" size="0" pos="24" show="444"/>
    </field>
    <field name="tcp.stream.client.contiguity_count" showname="Client Contiguous Streams: 1" size="0" pos="24" show="1"/>
    <field name="tcp.stream.server.contiguity_count" showname="Server Contiguous Streams: 1" size="0" pos="24" show="1"/>
    <field name="tcp.payload" showname="TCP payload (444 bytes)" size="444" pos="56" show="50:4f:53:54:20:2f:3f:64:65:66:61:75:6c:74:5f:66:6f:72:6d:61:74:3d:41:72:72:6f:77:53:74:72:65:61:6d:26:63:6f:6d:70:72:65:73:73:3d:31:26:71:75:65:72:79:5f:69:64:3d:71:75:65:72:79:5f:55:75:63:53:56:31:70:42:57:66:39:73:38:6d:71:43:26:73:65:73:73:69:6f:6e:5f:69:64:3d:73:65:73:73:69:6f:6e:5f:76:56:77:78:4f:66:52:6c:6f:51:5a:48:7a:7a:53:53:26:6f:75:74:70:75:74:5f:66:6f:72:6d:61:74:5f:61:72:72:6f:77:5f:63:6f:6d:70:72:65:73:73:69:6f:6e:5f:6d:65:74:68:6f:64:3d:6e:6f:6e:65:20:48:54:54:50:2f:31:2e:31:0d:0a:75:73:65:72:2d:61:67:65:6e:74:3a:20:63:6c:69:63:6b:68:6f:75:73:65:2d:65:78:74:2d:61:72:72:6f:77:2f:30:2e:31:2e:30:20:61:64:62:63:5f:63:6c:69:63:6b:68:6f:75:73:65:2f:30:2e:31:2e:30:20:63:6c:69:63:6b:68:6f:75:73:65:2d:72:73:2f:30:2e:31:35:2e:31:20:28:6c:76:3a:72:75:73:74:2f:31:2e:38:39:2e:30:3b:20:6f:73:3a:6d:61:63:6f:73:29:0d:0a:78:2d:63:6c:69:63:6b:68:6f:75:73:65:2d:75:73:65:72:3a:20:77:6f:72:6b:73:68:6f:70:0d:0a:78:2d:63:6c:69:63:6b:68:6f:75:73:65:2d:6b:65:79:3a:20:77:6f:72:6b:73:68:6f:70:0d:0a:63:6f:6e:74:65:6e:74:2d:6c:65:6e:67:74:68:3a:20:36:35:0d:0a:68:6f:73:74:3a:20:31:32:37:2e:30:2e:30:2e:31:3a:31:38:31:32:33:0d:0a:0d:0a:53:45:4c:45:43:54:20:63:6f:6e:66:2c:20:73:74:61:72:74:73:5f:61:74:2c:20:73:70:65:61:6b:65:72:20:46:52:4f:4d:20:73:6d:61:72:74:64:61:74:61:20:4f:52:44:45:52:20:42:59:20:73:74:61:72:74:73:5f:61:74" value="504f5354202f3f64656661756c745f666f726d61743d4172726f7753747265616d26636f6d70726573733d312671756572795f69643d71756572795f557563535631704257663973386d71432673657373696f6e5f69643d73657373696f6e5f765677784f66526c6f515a487a7a5353266f75747075745f666f726d61745f6172726f775f636f6d7072657373696f6e5f6d6574686f643d6e6f6e6520485454502f312e310d0a757365722d6167656e743a20636c69636b686f7573652d6578742d6172726f772f302e312e3020616462635f636c69636b686f7573652f302e312e3020636c69636b686f7573652d72732f302e31352e3120286c763a727573742f312e38392e303b206f733a6d61636f73290d0a782d636c69636b686f7573652d757365723a20776f726b73686f700d0a782d636c69636b686f7573652d6b65793a20776f726b73686f700d0a636f6e74656e742d6c656e6774683a2036350d0a686f73743a203132372e302e302e313a31383132330d0a0d0a53454c45435420636f6e662c207374617274735f61742c20737065616b65722046524f4d20736d61727464617461204f52444552204259207374617274735f6174"/>
  </proto>
  <proto name="http" showname="Hypertext Transfer Protocol" size="444" pos="56">
    <field name="" show="POST /?default_format=ArrowStream&amp;compress=1&amp;query_id=query_UucSV1pBWf9s8mqC&amp;session_id=session_vVwxOfRloQZHzzSS&amp;output_format_arrow_compression_method=none HTTP/1.1\r\n" size="167" pos="56" value="504f5354202f3f64656661756c745f666f726d61743d4172726f7753747265616d26636f6d70726573733d312671756572795f69643d71756572795f557563535631704257663973386d71432673657373696f6e5f69643d73657373696f6e5f765677784f66526c6f515a487a7a5353266f75747075745f666f726d61745f6172726f775f636f6d7072657373696f6e5f6d6574686f643d6e6f6e6520485454502f312e310d0a">
      <field name="http.request.method" showname="Request Method: POST" size="4" pos="56" show="POST" value="504f5354"/>
      <field name="http.request.uri" showname="Request URI: /?default_format=ArrowStream&amp;compress=1&amp;query_id=query_UucSV1pBWf9s8mqC&amp;session_id=session_vVwxOfRloQZHzzSS&amp;output_format_arrow_compression_method=none" size="151" pos="61" show="/?default_format=ArrowStream&amp;compress=1&amp;query_id=query_UucSV1pBWf9s8mqC&amp;session_id=session_vVwxOfRloQZHzzSS&amp;output_format_arrow_compression_method=none" value="2f3f64656661756c745f666f726d61743d4172726f7753747265616d26636f6d70726573733d312671756572795f69643d71756572795f557563535631704257663973386d71432673657373696f6e5f69643d73657373696f6e5f765677784f66526c6f515a487a7a5353266f75747075745f666f726d61745f6172726f775f636f6d7072657373696f6e5f6d6574686f643d6e6f6e65">
        <field name="http.request.uri.path" showname="Request URI Path: /" size="1" pos="61" show="/" value="2f"/>
        <field name="http.request.uri.query" showname="Request URI Query: default_format=ArrowStream&amp;compress=1&amp;query_id=query_UucSV1pBWf9s8mqC&amp;session_id=session_vVwxOfRloQZHzzSS&amp;output_format_arrow_compression_method=none" size="149" pos="63" show="default_format=ArrowStream&amp;compress=1&amp;query_id=query_UucSV1pBWf9s8mqC&amp;session_id=session_vVwxOfRloQZHzzSS&amp;output_format_arrow_compression_method=none" value="64656661756c745f666f726d61743d4172726f7753747265616d26636f6d70726573733d312671756572795f69643d71756572795f557563535631704257663973386d71432673657373696f6e5f69643d73657373696f6e5f765677784f66526c6f515a487a7a5353266f75747075745f666f726d61745f6172726f775f636f6d7072657373696f6e5f6d6574686f643d6e6f6e65">
          <field name="http.request.uri.query.parameter" showname="Request URI Query Parameter: default_format=ArrowStream" size="26" pos="63" show="default_format=ArrowStream" value="64656661756c745f666f726d61743d4172726f7753747265616d"/>
          <field name="http.request.uri.query.parameter" showname="Request URI Query Parameter: compress=1" size="10" pos="90" show="compress=1" value="636f6d70726573733d31"/>
          <field name="http.request.uri.query.parameter" showname="Request URI Query Parameter: query_id=query_UucSV1pBWf9s8mqC" size="31" pos="101" show="query_id=query_UucSV1pBWf9s8mqC" value="71756572795f69643d71756572795f557563535631704257663973386d7143"/>
          <field name="http.request.uri.query.parameter" showname="Request URI Query Parameter: session_id=session_vVwxOfRloQZHzzSS" size="35" pos="133" show="session_id=session_vVwxOfRloQZHzzSS" value="73657373696f6e5f69643d73657373696f6e5f765677784f66526c6f515a487a7a5353"/>
          <field name="http.request.uri.query.parameter" showname="Request URI Query Parameter: output_format_arrow_compression_method=none" size="43" pos="169" show="output_format_arrow_compression_method=none" value="6f75747075745f666f726d61745f6172726f775f636f6d7072657373696f6e5f6d6574686f643d6e6f6e65"/>
        </field>
      </field>
      <field name="http.request.version" showname="Request Version: HTTP/1.1" size="8" pos="213" show="HTTP/1.1" value="485454502f312e31"/>
    </field>
    <field name="http.user_agent" showname="user-agent: clickhouse-ext-arrow/0.1.0 adbc_clickhouse/0.1.0 clickhouse-rs/0.15.1 (lv:rust/1.89.0; os:macos)\r\n" size="110" pos="223" show="clickhouse-ext-arrow/0.1.0 adbc_clickhouse/0.1.0 clickhouse-rs/0.15.1 (lv:rust/1.89.0; os:macos)" value="757365722d6167656e743a20636c69636b686f7573652d6578742d6172726f772f302e312e3020616462635f636c69636b686f7573652f302e312e3020636c69636b686f7573652d72732f302e31352e3120286c763a727573742f312e38392e303b206f733a6d61636f73290d0a"/>
    <field name="http.request.line" showname="user-agent: clickhouse-ext-arrow/0.1.0 adbc_clickhouse/0.1.0 clickhouse-rs/0.15.1 (lv:rust/1.89.0; os:macos)\r\n" hide="yes" size="110" pos="223" show="user-agent: clickhouse-ext-arrow/0.1.0 adbc_clickhouse/0.1.0 clickhouse-rs/0.15.1 (lv:rust/1.89.0; os:macos)
" value="757365722d6167656e743a20636c69636b686f7573652d6578742d6172726f772f302e312e3020616462635f636c69636b686f7573652f302e312e3020636c69636b686f7573652d72732f302e31352e3120286c763a727573742f312e38392e303b206f733a6d61636f73290d0a"/>
    <field name="http.request.line" showname="x-clickhouse-user: workshop\r\n" size="29" pos="333" show="x-clickhouse-user: workshop
" value="782d636c69636b686f7573652d757365723a20776f726b73686f700d0a"/>
    <field name="http.request.line" showname="x-clickhouse-key: workshop\r\n" size="28" pos="362" show="x-clickhouse-key: workshop
" value="782d636c69636b686f7573652d6b65793a20776f726b73686f700d0a"/>
    <field name="http.content_length_header" showname="content-length: 65\r\n" size="20" pos="390" show="65" value="636f6e74656e742d6c656e6774683a2036350d0a">
      <field name="http.content_length" showname="Content length: 65" size="20" pos="390" show="65" value="636f6e74656e742d6c656e6774683a2036350d0a"/>
    </field>
    <field name="http.request.line" showname="content-length: 65\r\n" hide="yes" size="20" pos="390" show="content-length: 65
" value="636f6e74656e742d6c656e6774683a2036350d0a"/>
    <field name="http.host" showname="host: 127.0.0.1:18123\r\n" size="23" pos="410" show="127.0.0.1:18123" value="686f73743a203132372e302e302e313a31383132330d0a"/>
    <field name="http.request.line" showname="host: 127.0.0.1:18123\r\n" hide="yes" size="23" pos="410" show="host: 127.0.0.1:18123
" value="686f73743a203132372e302e302e313a31383132330d0a"/>
    <field name="" show="\r\n" size="2" pos="433" value="0d0a"/>
    <field name="http.request" showname="Request: True" hide="yes" size="0" pos="56" show="True"/>
    <field name="http.request.full_uri" showname="Full request URI: http://127.0.0.1:18123/?default_format=ArrowStream&amp;compress=1&amp;query_id=query_UucSV1pBWf9s8mqC&amp;session_id=session_vVwxOfRloQZHzzSS&amp;output_format_arrow_compression_method=none" size="0" pos="56" show="http://127.0.0.1:18123/?default_format=ArrowStream&amp;compress=1&amp;query_id=query_UucSV1pBWf9s8mqC&amp;session_id=session_vVwxOfRloQZHzzSS&amp;output_format_arrow_compression_method=none"/>
    <field name="http.file_data" showname="File Data: 65 bytes" size="65" pos="435" show="53:45:4c:45:43:54:20:63:6f:6e:66:2c:20:73:74:61:72:74:73:5f:61:74:2c:20:73:70:65:61:6b:65:72:20:46:52:4f:4d:20:73:6d:61:72:74:64:61:74:61:20:4f:52:44:45:52:20:42:59:20:73:74:61:72:74:73:5f:61:74" value="53454c45435420636f6e662c207374617274735f61742c20737065616b65722046524f4d20736d61727464617461204f52444552204259207374617274735f6174"/>
    <field name="data" value="53454c45435420636f6e662c207374617274735f61742c20737065616b65722046524f4d20736d61727464617461204f52444552204259207374617274735f6174">
      <field name="data.data" showname="Data: 53454c45435420636f6e662c207374617274735f61742c20737065616b65722046524f4d20736d61727464617461204f52444552204259207374617274735f6174" size="65" pos="435" show="53:45:4c:45:43:54:20:63:6f:6e:66:2c:20:73:74:61:72:74:73:5f:61:74:2c:20:73:70:65:61:6b:65:72:20:46:52:4f:4d:20:73:6d:61:72:74:64:61:74:61:20:4f:52:44:45:52:20:42:59:20:73:74:61:72:74:73:5f:61:74" value="53454c45435420636f6e662c207374617274735f61742c20737065616b65722046524f4d20736d61727464617461204f52444552204259207374617274735f6174"/>
      <field name="data.len" showname="Length: 65" size="0" pos="435" show="65"/>
    </field>
  </proto>
</packet>


<packet>
  <proto name="geninfo" pos="0" showname="General information" size="56">
    <field name="num" pos="0" show="6" showname="Number" value="6" size="56"/>
    <field name="len" pos="0" show="56" showname="Frame Length" value="38" size="56"/>
    <field name="caplen" pos="0" show="56" showname="Captured Length" value="38" size="56"/>
    <field name="timestamp" pos="0" show="Sep 14, 2026 06:56:27.364677000 MSK" showname="Captured Time" value="1789358187.364677000" size="56"/>
  </proto>
  <proto name="frame" showname="Frame 6: Packet, 56 bytes on wire (448 bits), 56 bytes captured (448 bits) on interface lo0, id 0" size="56" pos="0">
    <field name="frame.section_number" showname="Section number: 1" size="0" pos="0" show="1"/>
    <field name="frame.interface_id" showname="Interface id: 0 (lo0)" size="0" pos="0" show="0">
      <field name="frame.interface_name" showname="Interface name: lo0" size="0" pos="0" show="lo0"/>
      <field name="frame.interface_description" showname="Interface description: Loopback" size="0" pos="0" show="Loopback"/>
    </field>
    <field name="frame.encap_type" showname="Encapsulation type: NULL/Loopback (15)" size="0" pos="0" show="15"/>
    <field name="frame.time" showname="Arrival Time: Sep 14, 2026 06:56:27.364677000 MSK" size="0" pos="0" show="2026-09-14T06:56:27.364677000+0300"/>
    <field name="frame.time_utc" showname="UTC Arrival Time: Sep 14, 2026 03:56:27.364677000 UTC" size="0" pos="0" show="2026-09-14T03:56:27.364677000Z"/>
    <field name="frame.time_epoch" showname="Epoch Arrival Time: 1789358187.364677000" size="0" pos="0" show="1789358187.364677000"/>
    <field name="frame.offset_shift" showname="Time shift for this packet: 0.000000000 seconds" size="0" pos="0" show="0.000000000"/>
    <field name="frame.time_delta" showname="Time delta from previous captured frame: 36.000 microseconds" size="0" pos="0" show="0.000036000"/>
    <field name="frame.time_delta_displayed" showname="Time delta from previous displayed frame: 36.000 microseconds" size="0" pos="0" show="0.000036000"/>
    <field name="frame.time_relative" showname="Time since reference or first frame: 937.000 microseconds" size="0" pos="0" show="0.000937000"/>
    <field name="frame.number" showname="Frame Number: 6" size="0" pos="0" show="6"/>
    <field name="frame.len" showname="Frame Length: 56 bytes (448 bits)" size="0" pos="0" show="56"/>
    <field name="frame.cap_len" showname="Capture Length: 56 bytes (448 bits)" size="0" pos="0" show="56"/>
    <field name="frame.marked" showname="Frame is marked: False" size="0" pos="0" show="False"/>
    <field name="frame.ignored" showname="Frame is ignored: False" size="0" pos="0" show="False"/>
    <field name="frame.protocols" showname="Protocols in frame: null:ip:tcp" size="0" pos="0" show="null:ip:tcp"/>
    <field name="frame.encoding" showname="Character encoding: ASCII (0)" size="0" pos="0" show="0"/>
  </proto>
  <proto name="null" showname="Null/Loopback" size="4" pos="0">
    <field name="null.family" showname="Family: IP (2)" size="4" pos="0" show="2" value="02000000"/>
  </proto>
  <proto name="ip" showname="Internet Protocol Version 4, Src: 127.0.0.1, Dst: 127.0.0.1" size="20" pos="4">
    <field name="ip.version" showname="0100 .... = Version: 4" size="1" pos="4" show="4" value="45"/>
    <field name="ip.hdr_len" showname=".... 0101 = Header Length: 20 bytes (5)" size="1" pos="4" show="20" value="45"/>
    <field name="ip.dsfield" showname="Differentiated Services Field: 0x00 (DSCP: CS0, ECN: Not-ECT)" size="1" pos="5" show="0x00" value="00">
      <field name="ip.dsfield.dscp" showname="0000 00.. = Differentiated Services Codepoint: Default (0)" size="1" pos="5" show="0" value="0" unmaskedvalue="00"/>
      <field name="ip.dsfield.ecn" showname=".... ..00 = Explicit Congestion Notification: Not ECN-Capable Transport (0)" size="1" pos="5" show="0" value="0" unmaskedvalue="00"/>
    </field>
    <field name="ip.len" showname="Total Length: 52" size="2" pos="6" show="52" value="0034"/>
    <field name="ip.id" showname="Identification: 0x0000 (0)" size="2" pos="8" show="0x0000" value="0000"/>
    <field name="ip.flags" showname="010. .... = Flags: 0x2, Don&#x27;t fragment" size="1" pos="10" show="0x02" value="2" unmaskedvalue="40">
      <field name="ip.flags.rb" showname="0... .... = Reserved bit: Not set" size="1" pos="10" show="False" value="0" unmaskedvalue="40"/>
      <field name="ip.flags.df" showname=".1.. .... = Don&#x27;t fragment: Set" size="1" pos="10" show="True" value="1" unmaskedvalue="40"/>
      <field name="ip.flags.mf" showname="..0. .... = More fragments: Not set" size="1" pos="10" show="False" value="0" unmaskedvalue="40"/>
    </field>
    <field name="ip.frag_offset" showname="...0 0000 0000 0000 = Fragment Offset: 0" size="2" pos="10" show="0" value="0" unmaskedvalue="4000"/>
    <field name="ip.ttl" showname="Time to Live: 64" size="1" pos="12" show="64" value="40"/>
    <field name="ip.proto" showname="Protocol: TCP (6)" size="1" pos="13" show="6" value="06"/>
    <field name="ip.checksum" showname="Header Checksum: 0x0000 [validation disabled]" size="2" pos="14" show="0x0000" value="0000"/>
    <field name="ip.checksum.status" showname="Header checksum status: Unverified" size="0" pos="14" show="2"/>
    <field name="ip.src" showname="Source Address: 127.0.0.1" size="4" pos="16" show="127.0.0.1" value="7f000001"/>
    <field name="ip.addr" showname="Source or Destination Address: 127.0.0.1" hide="yes" size="4" pos="16" show="127.0.0.1" value="7f000001"/>
    <field name="ip.src_host" showname="Source Host: 127.0.0.1" hide="yes" size="4" pos="16" show="127.0.0.1" value="7f000001"/>
    <field name="ip.host" showname="Source or Destination Host: 127.0.0.1" hide="yes" size="4" pos="16" show="127.0.0.1" value="7f000001"/>
    <field name="ip.dst" showname="Destination Address: 127.0.0.1" size="4" pos="20" show="127.0.0.1" value="7f000001"/>
    <field name="ip.addr" showname="Source or Destination Address: 127.0.0.1" hide="yes" size="4" pos="20" show="127.0.0.1" value="7f000001"/>
    <field name="ip.dst_host" showname="Destination Host: 127.0.0.1" hide="yes" size="4" pos="20" show="127.0.0.1" value="7f000001"/>
    <field name="ip.host" showname="Source or Destination Host: 127.0.0.1" hide="yes" size="4" pos="20" show="127.0.0.1" value="7f000001"/>
    <field name="ip.stream" showname="Stream index: 0" size="0" pos="24" show="0"/>
  </proto>
  <proto name="tcp" showname="Transmission Control Protocol, Src Port: 18123, Dst Port: 56100, Seq: 1, Ack: 445, Len: 0" size="32" pos="24">
    <field name="tcp.srcport" showname="Source Port: 18123" size="2" pos="24" show="18123" value="46cb"/>
    <field name="tcp.dstport" showname="Destination Port: 56100" size="2" pos="26" show="56100" value="db24"/>
    <field name="tcp.port" showname="Source or Destination Port: 18123" hide="yes" size="2" pos="24" show="18123" value="46cb"/>
    <field name="tcp.port" showname="Source or Destination Port: 56100" hide="yes" size="2" pos="26" show="56100" value="db24"/>
    <field name="tcp.stream" showname="Stream index: 0" size="0" pos="24" show="0"/>
    <field name="tcp.stream.pnum" showname="Stream Packet Number: 6" size="0" pos="24" show="6"/>
    <field name="tcp.completeness" showname="Conversation completeness: Incomplete, DATA (15)" size="0" pos="24" show="15">
      <field name="tcp.completeness.rst" showname="..0. .... = RST: Absent" size="0" pos="0" show="False"/>
      <field name="tcp.completeness.fin" showname="...0 .... = FIN: Absent" size="0" pos="0" show="False"/>
      <field name="tcp.completeness.data" showname=".... 1... = Data: Present" size="0" pos="0" show="True"/>
      <field name="tcp.completeness.ack" showname=".... .1.. = ACK: Present" size="0" pos="0" show="True"/>
      <field name="tcp.completeness.syn-ack" showname=".... ..1. = SYN-ACK: Present" size="0" pos="0" show="True"/>
      <field name="tcp.completeness.syn" showname=".... ...1 = SYN: Present" size="0" pos="0" show="True"/>
      <field name="tcp.completeness.str" showname="Completeness Flags: ··DASS" size="0" pos="24" show="··DASS"/>
    </field>
    <field name="tcp.len" showname="TCP Segment Len: 0" size="0" pos="24" show="0"/>
    <field name="tcp.seq" showname="Sequence Number: 1    (relative sequence number)" size="4" pos="28" show="1" value="87698a47"/>
    <field name="tcp.seq_raw" showname="Sequence Number (raw): 2271840839" size="4" pos="28" show="2271840839" value="87698a47"/>
    <field name="tcp.nxtseq" showname="Next Sequence Number: 1    (relative sequence number)" size="0" pos="24" show="1"/>
    <field name="tcp.ack" showname="Acknowledgment Number: 445    (relative ack number)" size="4" pos="32" show="445" value="032b0a57"/>
    <field name="tcp.ack_raw" showname="Acknowledgment number (raw): 53152343" size="4" pos="32" show="53152343" value="032b0a57"/>
    <field name="tcp.hdr_len" showname="1000 .... = Header Length: 32 bytes (8)" size="1" pos="36" show="32" value="80"/>
    <field name="tcp.flags" showname="Flags: 0x010 (ACK)" size="2" pos="36" show="0x0010" value="10" unmaskedvalue="8010">
      <field name="tcp.flags.res" showname="000. .... .... = Reserved: Not set" size="1" pos="36" show="False" value="0" unmaskedvalue="80"/>
      <field name="tcp.flags.ae" showname="...0 .... .... = Accurate ECN: Not set" size="1" pos="36" show="False" value="0" unmaskedvalue="80"/>
      <field name="tcp.flags.cwr" showname=".... 0... .... = Congestion Window Reduced: Not set" size="1" pos="37" show="False" value="0" unmaskedvalue="10"/>
      <field name="tcp.flags.ece" showname=".... .0.. .... = ECN-Echo: Not set" size="1" pos="37" show="False" value="0" unmaskedvalue="10"/>
      <field name="tcp.flags.urg" showname=".... ..0. .... = Urgent: Not set" size="1" pos="37" show="False" value="0" unmaskedvalue="10"/>
      <field name="tcp.flags.ack" showname=".... ...1 .... = Acknowledgment: Set" size="1" pos="37" show="True" value="1" unmaskedvalue="10"/>
      <field name="tcp.flags.push" showname=".... .... 0... = Push: Not set" size="1" pos="37" show="False" value="0" unmaskedvalue="10"/>
      <field name="tcp.flags.reset" showname=".... .... .0.. = Reset: Not set" size="1" pos="37" show="False" value="0" unmaskedvalue="10"/>
      <field name="tcp.flags.syn" showname=".... .... ..0. = Syn: Not set" size="1" pos="37" show="False" value="0" unmaskedvalue="10"/>
      <field name="tcp.flags.fin" showname=".... .... ...0 = Fin: Not set" size="1" pos="37" show="False" value="0" unmaskedvalue="10"/>
      <field name="tcp.flags.str" showname="TCP Flags: ·······A····" size="2" pos="36" show="·······A····" value="8010"/>
    </field>
    <field name="tcp.window_size_value" showname="Window: 6374" size="2" pos="38" show="6374" value="18e6"/>
    <field name="tcp.window_size" showname="Calculated window size: 407936" size="2" pos="38" show="407936" value="18e6"/>
    <field name="tcp.window_size_scalefactor" showname="Window size scaling factor: 64" size="2" pos="38" show="64" value="18e6"/>
    <field name="tcp.checksum" showname="Checksum: 0xfe28 [unverified]" size="2" pos="40" show="0xfe28" value="fe28"/>
    <field name="tcp.checksum.status" showname="Checksum Status: Unverified" size="0" pos="40" show="2"/>
    <field name="tcp.urgent_pointer" showname="Urgent Pointer: 0" size="2" pos="42" show="0" value="0000"/>
    <field name="tcp.options" showname="Options: (12 bytes), No-Operation (NOP), No-Operation (NOP), Timestamps" size="12" pos="44" show="01:01:08:0a:23:e9:ab:12:f6:cf:64:2d" value="0101080a23e9ab12f6cf642d">
      <field name="tcp.options.nop" showname="TCP Option - No-Operation (NOP)" size="1" pos="44" show="01" value="01">
        <field name="tcp.option_kind" showname="Kind: No-Operation (1)" size="1" pos="44" show="1" value="01"/>
      </field>
      <field name="tcp.options.nop" showname="TCP Option - No-Operation (NOP)" size="1" pos="45" show="01" value="01">
        <field name="tcp.option_kind" showname="Kind: No-Operation (1)" size="1" pos="45" show="1" value="01"/>
      </field>
      <field name="tcp.options.timestamp" showname="TCP Option - Timestamps: TSval 602516242, TSecr 4140786733" size="10" pos="46" show="08:0a:23:e9:ab:12:f6:cf:64:2d" value="080a23e9ab12f6cf642d">
        <field name="tcp.option_kind" showname="Kind: Time Stamp Option (8)" size="1" pos="46" show="8" value="08"/>
        <field name="tcp.option_len" showname="Length: 10" size="1" pos="47" show="10" value="0a"/>
        <field name="tcp.options.timestamp.tsval" showname="Timestamp value: 602516242" size="4" pos="48" show="602516242" value="23e9ab12"/>
        <field name="tcp.options.timestamp.tsecr" showname="Timestamp echo reply: 4140786733" size="4" pos="52" show="4140786733" value="f6cf642d"/>
      </field>
    </field>
    <field name="" show="Timestamps" size="0" pos="24">
      <field name="tcp.time_relative" showname="Time since first frame in this TCP stream: 937.000 microseconds" size="0" pos="24" show="0.000937000"/>
      <field name="tcp.time_delta" showname="Time since previous frame in this TCP stream: 36.000 microseconds" size="0" pos="24" show="0.000036000"/>
    </field>
    <field name="tcp.analysis" showname="SEQ/ACK analysis" size="0" pos="24" show="" value="">
      <field name="tcp.analysis.acks_frame" showname="This is an ACK to the segment in frame: 5" size="0" pos="24" show="5"/>
      <field name="tcp.analysis.ack_rtt" showname="The RTT to ACK the segment was: 36.000 microseconds" size="0" pos="24" show="0.000036000"/>
      <field name="tcp.analysis.initial_rtt" showname="iRTT: 120.000 microseconds" size="0" pos="24" show="0.000120000"/>
    </field>
    <field name="tcp.stream.client.contiguity_count" showname="Client Contiguous Streams: 1" size="0" pos="24" show="1"/>
    <field name="tcp.stream.server.contiguity_count" showname="Server Contiguous Streams: 1" size="0" pos="24" show="1"/>
  </proto>
</packet>


<packet>
  <proto name="geninfo" pos="0" showname="General information" size="1317">
    <field name="num" pos="0" show="7" showname="Number" value="7" size="1317"/>
    <field name="len" pos="0" show="1317" showname="Frame Length" value="525" size="1317"/>
    <field name="caplen" pos="0" show="1317" showname="Captured Length" value="525" size="1317"/>
    <field name="timestamp" pos="0" show="Sep 14, 2026 06:56:27.368567000 MSK" showname="Captured Time" value="1789358187.368567000" size="1317"/>
  </proto>
  <proto name="frame" showname="Frame 7: Packet, 1317 bytes on wire (10536 bits), 1317 bytes captured (10536 bits) on interface lo0, id 0" size="1317" pos="0">
    <field name="frame.section_number" showname="Section number: 1" size="0" pos="0" show="1"/>
    <field name="frame.interface_id" showname="Interface id: 0 (lo0)" size="0" pos="0" show="0">
      <field name="frame.interface_name" showname="Interface name: lo0" size="0" pos="0" show="lo0"/>
      <field name="frame.interface_description" showname="Interface description: Loopback" size="0" pos="0" show="Loopback"/>
    </field>
    <field name="frame.encap_type" showname="Encapsulation type: NULL/Loopback (15)" size="0" pos="0" show="15"/>
    <field name="frame.time" showname="Arrival Time: Sep 14, 2026 06:56:27.368567000 MSK" size="0" pos="0" show="2026-09-14T06:56:27.368567000+0300"/>
    <field name="frame.time_utc" showname="UTC Arrival Time: Sep 14, 2026 03:56:27.368567000 UTC" size="0" pos="0" show="2026-09-14T03:56:27.368567000Z"/>
    <field name="frame.time_epoch" showname="Epoch Arrival Time: 1789358187.368567000" size="0" pos="0" show="1789358187.368567000"/>
    <field name="frame.offset_shift" showname="Time shift for this packet: 0.000000000 seconds" size="0" pos="0" show="0.000000000"/>
    <field name="frame.time_delta" showname="Time delta from previous captured frame: 3.890000 milliseconds" size="0" pos="0" show="0.003890000"/>
    <field name="frame.time_delta_displayed" showname="Time delta from previous displayed frame: 3.890000 milliseconds" size="0" pos="0" show="0.003890000"/>
    <field name="frame.time_relative" showname="Time since reference or first frame: 4.827000 milliseconds" size="0" pos="0" show="0.004827000"/>
    <field name="frame.number" showname="Frame Number: 7" size="0" pos="0" show="7"/>
    <field name="frame.len" showname="Frame Length: 1317 bytes (10536 bits)" size="0" pos="0" show="1317"/>
    <field name="frame.cap_len" showname="Capture Length: 1317 bytes (10536 bits)" size="0" pos="0" show="1317"/>
    <field name="frame.marked" showname="Frame is marked: False" size="0" pos="0" show="False"/>
    <field name="frame.ignored" showname="Frame is ignored: False" size="0" pos="0" show="False"/>
    <field name="frame.protocols" showname="Protocols in frame: null:ip:tcp:http:data" size="0" pos="0" show="null:ip:tcp:http:data"/>
    <field name="frame.encoding" showname="Character encoding: ASCII (0)" size="0" pos="0" show="0"/>
  </proto>
  <proto name="null" showname="Null/Loopback" size="4" pos="0">
    <field name="null.family" showname="Family: IP (2)" size="4" pos="0" show="2" value="02000000"/>
  </proto>
  <proto name="ip" showname="Internet Protocol Version 4, Src: 127.0.0.1, Dst: 127.0.0.1" size="20" pos="4">
    <field name="ip.version" showname="0100 .... = Version: 4" size="1" pos="4" show="4" value="45"/>
    <field name="ip.hdr_len" showname=".... 0101 = Header Length: 20 bytes (5)" size="1" pos="4" show="20" value="45"/>
    <field name="ip.dsfield" showname="Differentiated Services Field: 0x00 (DSCP: CS0, ECN: Not-ECT)" size="1" pos="5" show="0x00" value="00">
      <field name="ip.dsfield.dscp" showname="0000 00.. = Differentiated Services Codepoint: Default (0)" size="1" pos="5" show="0" value="0" unmaskedvalue="00"/>
      <field name="ip.dsfield.ecn" showname=".... ..00 = Explicit Congestion Notification: Not ECN-Capable Transport (0)" size="1" pos="5" show="0" value="0" unmaskedvalue="00"/>
    </field>
    <field name="ip.len" showname="Total Length: 1313" size="2" pos="6" show="1313" value="0521"/>
    <field name="ip.id" showname="Identification: 0x0000 (0)" size="2" pos="8" show="0x0000" value="0000"/>
    <field name="ip.flags" showname="010. .... = Flags: 0x2, Don&#x27;t fragment" size="1" pos="10" show="0x02" value="2" unmaskedvalue="40">
      <field name="ip.flags.rb" showname="0... .... = Reserved bit: Not set" size="1" pos="10" show="False" value="0" unmaskedvalue="40"/>
      <field name="ip.flags.df" showname=".1.. .... = Don&#x27;t fragment: Set" size="1" pos="10" show="True" value="1" unmaskedvalue="40"/>
      <field name="ip.flags.mf" showname="..0. .... = More fragments: Not set" size="1" pos="10" show="False" value="0" unmaskedvalue="40"/>
    </field>
    <field name="ip.frag_offset" showname="...0 0000 0000 0000 = Fragment Offset: 0" size="2" pos="10" show="0" value="0" unmaskedvalue="4000"/>
    <field name="ip.ttl" showname="Time to Live: 64" size="1" pos="12" show="64" value="40"/>
    <field name="ip.proto" showname="Protocol: TCP (6)" size="1" pos="13" show="6" value="06"/>
    <field name="ip.checksum" showname="Header Checksum: 0x0000 [validation disabled]" size="2" pos="14" show="0x0000" value="0000"/>
    <field name="ip.checksum.status" showname="Header checksum status: Unverified" size="0" pos="14" show="2"/>
    <field name="ip.src" showname="Source Address: 127.0.0.1" size="4" pos="16" show="127.0.0.1" value="7f000001"/>
    <field name="ip.addr" showname="Source or Destination Address: 127.0.0.1" hide="yes" size="4" pos="16" show="127.0.0.1" value="7f000001"/>
    <field name="ip.src_host" showname="Source Host: 127.0.0.1" hide="yes" size="4" pos="16" show="127.0.0.1" value="7f000001"/>
    <field name="ip.host" showname="Source or Destination Host: 127.0.0.1" hide="yes" size="4" pos="16" show="127.0.0.1" value="7f000001"/>
    <field name="ip.dst" showname="Destination Address: 127.0.0.1" size="4" pos="20" show="127.0.0.1" value="7f000001"/>
    <field name="ip.addr" showname="Source or Destination Address: 127.0.0.1" hide="yes" size="4" pos="20" show="127.0.0.1" value="7f000001"/>
    <field name="ip.dst_host" showname="Destination Host: 127.0.0.1" hide="yes" size="4" pos="20" show="127.0.0.1" value="7f000001"/>
    <field name="ip.host" showname="Source or Destination Host: 127.0.0.1" hide="yes" size="4" pos="20" show="127.0.0.1" value="7f000001"/>
    <field name="ip.stream" showname="Stream index: 0" size="0" pos="24" show="0"/>
  </proto>
  <proto name="tcp" showname="Transmission Control Protocol, Src Port: 18123, Dst Port: 56100, Seq: 1, Ack: 445, Len: 1261" size="32" pos="24">
    <field name="tcp.srcport" showname="Source Port: 18123" size="2" pos="24" show="18123" value="46cb"/>
    <field name="tcp.dstport" showname="Destination Port: 56100" size="2" pos="26" show="56100" value="db24"/>
    <field name="tcp.port" showname="Source or Destination Port: 18123" hide="yes" size="2" pos="24" show="18123" value="46cb"/>
    <field name="tcp.port" showname="Source or Destination Port: 56100" hide="yes" size="2" pos="26" show="56100" value="db24"/>
    <field name="tcp.stream" showname="Stream index: 0" size="0" pos="24" show="0"/>
    <field name="tcp.stream.pnum" showname="Stream Packet Number: 7" size="0" pos="24" show="7"/>
    <field name="tcp.completeness" showname="Conversation completeness: Incomplete, DATA (15)" size="0" pos="24" show="15">
      <field name="tcp.completeness.rst" showname="..0. .... = RST: Absent" size="0" pos="0" show="False"/>
      <field name="tcp.completeness.fin" showname="...0 .... = FIN: Absent" size="0" pos="0" show="False"/>
      <field name="tcp.completeness.data" showname=".... 1... = Data: Present" size="0" pos="0" show="True"/>
      <field name="tcp.completeness.ack" showname=".... .1.. = ACK: Present" size="0" pos="0" show="True"/>
      <field name="tcp.completeness.syn-ack" showname=".... ..1. = SYN-ACK: Present" size="0" pos="0" show="True"/>
      <field name="tcp.completeness.syn" showname=".... ...1 = SYN: Present" size="0" pos="0" show="True"/>
      <field name="tcp.completeness.str" showname="Completeness Flags: ··DASS" size="0" pos="24" show="··DASS"/>
    </field>
    <field name="tcp.len" showname="TCP Segment Len: 1261" size="0" pos="24" show="1261"/>
    <field name="tcp.seq" showname="Sequence Number: 1    (relative sequence number)" size="4" pos="28" show="1" value="87698a47"/>
    <field name="tcp.seq_raw" showname="Sequence Number (raw): 2271840839" size="4" pos="28" show="2271840839" value="87698a47"/>
    <field name="tcp.nxtseq" showname="Next Sequence Number: 1262    (relative sequence number)" size="0" pos="24" show="1262"/>
    <field name="tcp.ack" showname="Acknowledgment Number: 445    (relative ack number)" size="4" pos="32" show="445" value="032b0a57"/>
    <field name="tcp.ack_raw" showname="Acknowledgment number (raw): 53152343" size="4" pos="32" show="53152343" value="032b0a57"/>
    <field name="tcp.hdr_len" showname="1000 .... = Header Length: 32 bytes (8)" size="1" pos="36" show="32" value="80"/>
    <field name="tcp.flags" showname="Flags: 0x018 (PSH, ACK)" size="2" pos="36" show="0x0018" value="18" unmaskedvalue="8018">
      <field name="tcp.flags.res" showname="000. .... .... = Reserved: Not set" size="1" pos="36" show="False" value="0" unmaskedvalue="80"/>
      <field name="tcp.flags.ae" showname="...0 .... .... = Accurate ECN: Not set" size="1" pos="36" show="False" value="0" unmaskedvalue="80"/>
      <field name="tcp.flags.cwr" showname=".... 0... .... = Congestion Window Reduced: Not set" size="1" pos="37" show="False" value="0" unmaskedvalue="18"/>
      <field name="tcp.flags.ece" showname=".... .0.. .... = ECN-Echo: Not set" size="1" pos="37" show="False" value="0" unmaskedvalue="18"/>
      <field name="tcp.flags.urg" showname=".... ..0. .... = Urgent: Not set" size="1" pos="37" show="False" value="0" unmaskedvalue="18"/>
      <field name="tcp.flags.ack" showname=".... ...1 .... = Acknowledgment: Set" size="1" pos="37" show="True" value="1" unmaskedvalue="18"/>
      <field name="tcp.flags.push" showname=".... .... 1... = Push: Set" size="1" pos="37" show="True" value="1" unmaskedvalue="18"/>
      <field name="tcp.flags.reset" showname=".... .... .0.. = Reset: Not set" size="1" pos="37" show="False" value="0" unmaskedvalue="18"/>
      <field name="tcp.flags.syn" showname=".... .... ..0. = Syn: Not set" size="1" pos="37" show="False" value="0" unmaskedvalue="18"/>
      <field name="tcp.flags.fin" showname=".... .... ...0 = Fin: Not set" size="1" pos="37" show="False" value="0" unmaskedvalue="18"/>
      <field name="tcp.flags.str" showname="TCP Flags: ·······AP···" size="2" pos="36" show="·······AP···" value="8018"/>
    </field>
    <field name="tcp.window_size_value" showname="Window: 6374" size="2" pos="38" show="6374" value="18e6"/>
    <field name="tcp.window_size" showname="Calculated window size: 407936" size="2" pos="38" show="407936" value="18e6"/>
    <field name="tcp.window_size_scalefactor" showname="Window size scaling factor: 64" size="2" pos="38" show="64" value="18e6"/>
    <field name="tcp.checksum" showname="Checksum: 0x0316 [unverified]" size="2" pos="40" show="0x0316" value="0316"/>
    <field name="tcp.checksum.status" showname="Checksum Status: Unverified" size="0" pos="40" show="2"/>
    <field name="tcp.urgent_pointer" showname="Urgent Pointer: 0" size="2" pos="42" show="0" value="0000"/>
    <field name="tcp.options" showname="Options: (12 bytes), No-Operation (NOP), No-Operation (NOP), Timestamps" size="12" pos="44" show="01:01:08:0a:23:e9:ab:16:f6:cf:64:2d" value="0101080a23e9ab16f6cf642d">
      <field name="tcp.options.nop" showname="TCP Option - No-Operation (NOP)" size="1" pos="44" show="01" value="01">
        <field name="tcp.option_kind" showname="Kind: No-Operation (1)" size="1" pos="44" show="1" value="01"/>
      </field>
      <field name="tcp.options.nop" showname="TCP Option - No-Operation (NOP)" size="1" pos="45" show="01" value="01">
        <field name="tcp.option_kind" showname="Kind: No-Operation (1)" size="1" pos="45" show="1" value="01"/>
      </field>
      <field name="tcp.options.timestamp" showname="TCP Option - Timestamps: TSval 602516246, TSecr 4140786733" size="10" pos="46" show="08:0a:23:e9:ab:16:f6:cf:64:2d" value="080a23e9ab16f6cf642d">
        <field name="tcp.option_kind" showname="Kind: Time Stamp Option (8)" size="1" pos="46" show="8" value="08"/>
        <field name="tcp.option_len" showname="Length: 10" size="1" pos="47" show="10" value="0a"/>
        <field name="tcp.options.timestamp.tsval" showname="Timestamp value: 602516246" size="4" pos="48" show="602516246" value="23e9ab16"/>
        <field name="tcp.options.timestamp.tsecr" showname="Timestamp echo reply: 4140786733" size="4" pos="52" show="4140786733" value="f6cf642d"/>
      </field>
    </field>
    <field name="" show="Timestamps" size="0" pos="24">
      <field name="tcp.time_relative" showname="Time since first frame in this TCP stream: 4.827000 milliseconds" size="0" pos="24" show="0.004827000"/>
      <field name="tcp.time_delta" showname="Time since previous frame in this TCP stream: 3.890000 milliseconds" size="0" pos="24" show="0.003890000"/>
    </field>
    <field name="tcp.analysis" showname="SEQ/ACK analysis" size="0" pos="24" show="" value="">
      <field name="tcp.analysis.initial_rtt" showname="iRTT: 120.000 microseconds" size="0" pos="24" show="0.000120000"/>
      <field name="tcp.analysis.bytes_in_flight" showname="Bytes in flight: 1261" size="0" pos="24" show="1261"/>
      <field name="tcp.analysis.push_bytes_sent" showname="Bytes sent since last PSH flag: 1261" size="0" pos="24" show="1261"/>
    </field>
    <field name="tcp.stream.client.contiguity_count" showname="Client Contiguous Streams: 1" size="0" pos="24" show="1"/>
    <field name="tcp.stream.server.contiguity_count" showname="Server Contiguous Streams: 1" size="0" pos="24" show="1"/>
    <field name="tcp.payload" showname="TCP payload (1261 bytes)" size="1261" pos="56" show="48:54:54:50:2f:31:2e:31:20:32:30:30:20:4f:4b:0d:0a:58:2d:43:6c:69:63:6b:48:6f:75:73:65:2d:53:75:6d:6d:61:72:79:3a:20:7b:22:72:65:61:64:5f:72:6f:77:73:22:3a:22:34:22:2c:22:72:65:61:64:5f:62:79:74:65:73:22:3a:22:31:31:36:22:2c:22:77:72:69:74:74:65:6e:5f:72:6f:77:73:22:3a:22:30:22:2c:22:77:72:69:74:74:65:6e:5f:62:79:74:65:73:22:3a:22:30:22:2c:22:74:6f:74:61:6c:5f:72:6f:77:73:5f:74:6f:5f:72:65:61:64:22:3a:22:34:22:2c:22:72:65:73:75:6c:74:5f:72:6f:77:73:22:3a:22:34:22:2c:22:72:65:73:75:6c:74:5f:62:79:74:65:73:22:3a:22:31:30:32:34:22:2c:22:65:6c:61:70:73:65:64:5f:6e:73:22:3a:22:31:38:33:37:32:30:38:22:2c:22:6d:65:6d:6f:72:79:5f:75:73:61:67:65:22:3a:22:32:31:38:39:36:33:30:22:7d:0d:0a:44:61:74:65:3a:20:4d:6f:6e:2c:20:31:34:20:53:65:70:20:32:30:32:36:20:30:33:3a:35:36:3a:32:37:20:47:4d:54:0d:0a:43:6f:6e:6e:65:63:74:69:6f:6e:3a:20:4b:65:65:70:2d:41:6c:69:76:65:0d:0a:43:6f:6e:74:65:6e:74:2d:54:79:70:65:3a:20:61:70:70:6c:69:63:61:74:69:6f:6e:2f:6f:63:74:65:74:2d:73:74:72:65:61:6d:0d:0a:41:63:63:65:73:73:2d:43:6f:6e:74:72:6f:6c:2d:45:78:70:6f:73:65:2d:48:65:61:64:65:72:73:3a:20:58:2d:43:6c:69:63:6b:48:6f:75:73:65:2d:51:75:65:72:79:2d:49:64:2c:58:2d:43:6c:69:63:6b:48:6f:75:73:65:2d:53:75:6d:6d:61:72:79:2c:58:2d:43:6c:69:63:6b:48:6f:75:73:65:2d:53:65:72:76:65:72:2d:44:69:73:70:6c:61:79:2d:4e:61:6d:65:2c:58:2d:43:6c:69:63:6b:48:6f:75:73:65:2d:46:6f:72:6d:61:74:2c:58:2d:43:6c:69:63:6b:48:6f:75:73:65:2d:54:69:6d:65:7a:6f:6e:65:2c:58:2d:43:6c:69:63:6b:48:6f:75:73:65:2d:45:78:63:65:70:74:69:6f:6e:2d:43:6f:64:65:2c:58:2d:43:6c:69:63:6b:48:6f:75:73:65:2d:45:78:63:65:70:74:69:6f:6e:2d:54:61:67:0d:0a:58:2d:43:6c:69:63:6b:48:6f:75:73:65:2d:53:65:72:76:65:72:2d:44:69:73:70:6c:61:79:2d:4e:61:6d:65:3a:20:65:33:32:64:61:61:36:32:38:38:65:30:0d:0a:54:72:61:6e:73:66:65:72:2d:45:6e:63:6f:64:69:6e:67:3a:20:63:68:75:6e:6b:65:64:0d:0a:58:2d:43:6c:69:63:6b:48:6f:75:73:65:2d:51:75:65:72:79:2d:49:64:3a:20:71:75:65:72:79:5f:55:75:63:53:56:31:70:42:57:66:39:73:38:6d:71:43:0d:0a:58:2d:43:6c:69:63:6b:48:6f:75:73:65:2d:46:6f:72:6d:61:74:3a:20:41:72:72:6f:77:53:74:72:65:61:6d:0d:0a:58:2d:43:6c:69:63:6b:48:6f:75:73:65:2d:54:69:6d:65:7a:6f:6e:65:3a:20:55:54:43:0d:0a:4b:65:65:70:2d:41:6c:69:76:65:3a:20:74:69:6d:65:6f:75:74:3d:33:30:2c:20:6d:61:78:3d:39:39:39:39:0d:0a:58:2d:43:6c:69:63:6b:48:6f:75:73:65:2d:45:78:63:65:70:74:69:6f:6e:2d:54:61:67:3a:20:72:68:75:65:70:65:62:69:6b:63:69:6c:77:67:6c:72:0d:0a:0d:0a:31:42:46:0d:0a:f7:2e:db:72:43:88:e4:93:4f:c7:4c:43:14:f4:66:fd:82:8d:01:00:00:50:02:00:00:a0:ff:ff:ff:ff:d8:00:00:00:10:00:01:00:b0:0a:00:0c:00:06:00:05:00:08:00:0a:0f:00:e3:01:04:00:0c:00:00:00:08:00:08:00:00:00:04:06:00:b1:00:00:03:00:00:00:84:00:00:00:38:16:00:a0:00:00:94:ff:ff:ff:00:00:00:02:26:00:f1:08:18:00:00:00:07:00:00:00:73:70:65:61:6b:65:72:00:08:00:0c:00:08:00:07:3c:00:92:00:00:00:01:20:00:00:00:c4:30:00:10:0a:30:00:50:1c:00:00:00:09:30:00:81:74:61:72:74:73:5f:61:74:70:00:00:86:00:13:08:34:00:11:02:64:00:00:74:00:71:55:54:43:00:0c:00:10:18:00:31:07:00:0c:9c:00:40:00:00:00:05:48:00:13:14:8c:00:40:63:6f:6e:66:16:00:11:04:02:00:20:00:00:e0:00:13:f8:20:00:00:02:00:33:0c:00:16:e2:00:03:40:00:21:03:04:b4:00:10:70:1d:00:01:02:00:51:0a:00:18:00:0c:ee:00:00:04:01:13:8c:1c:01:00:4c:00:04:02:00:00:e0:00:0f:02:00:05:00:88:00:00:02:00:00:54:00:00:02:00:10:24:05:00:41:00:00:00:40:06:00:06:02:00:04:10:00:00:10:01:00:02:00:10:60:05:00:07:02:00:04:10:00:02:98:01:02:02:00:00:04:01:08:88:00:00:02:00:0f:10:00:0d:00:02:00:00:60:01:57:12:00:00:00:1b:90:00:9f:53:6d:61:72:74:44:61:74:61:09:00:08:00:3c:00:f1:10:00:ec:ed:75:3b:05:06:00:00:91:b5:e9:98:21:06:00:00:a8:db:65:66:40:06:00:00:da:20:f7:23:5c:06:23:00:c0:01:00:00:00:00:00:00:00:01:00:00:00:63:cd:68:e1:60:ad:f9:b7:6e:f9:f8:66:1c:63:42:52:82:12:00:00:00:08:00:00:00:80:ff:ff:ff:ff:00:00:00:00:0d:0a:30:0d:0a:0d:0a" value="485454502f312e3120323030204f4b0d0a582d436c69636b486f7573652d53756d6d6172793a207b22726561645f726f7773223a2234222c22726561645f6279746573223a22313136222c227772697474656e5f726f7773223a2230222c227772697474656e5f6279746573223a2230222c22746f74616c5f726f77735f746f5f72656164223a2234222c22726573756c745f726f7773223a2234222c22726573756c745f6279746573223a2231303234222c22656c61707365645f6e73223a2231383337323038222c226d656d6f72795f7573616765223a2232313839363330227d0d0a446174653a204d6f6e2c2031342053657020323032362030333a35363a323720474d540d0a436f6e6e656374696f6e3a204b6565702d416c6976650d0a436f6e74656e742d547970653a206170706c69636174696f6e2f6f637465742d73747265616d0d0a4163636573732d436f6e74726f6c2d4578706f73652d486561646572733a20582d436c69636b486f7573652d51756572792d49642c582d436c69636b486f7573652d53756d6d6172792c582d436c69636b486f7573652d5365727665722d446973706c61792d4e616d652c582d436c69636b486f7573652d466f726d61742c582d436c69636b486f7573652d54696d657a6f6e652c582d436c69636b486f7573652d457863657074696f6e2d436f64652c582d436c69636b486f7573652d457863657074696f6e2d5461670d0a582d436c69636b486f7573652d5365727665722d446973706c61792d4e616d653a206533326461613632383865300d0a5472616e736665722d456e636f64696e673a206368756e6b65640d0a582d436c69636b486f7573652d51756572792d49643a2071756572795f557563535631704257663973386d71430d0a582d436c69636b486f7573652d466f726d61743a204172726f7753747265616d0d0a582d436c69636b486f7573652d54696d657a6f6e653a205554430d0a4b6565702d416c6976653a2074696d656f75743d33302c206d61783d393939390d0a582d436c69636b486f7573652d457863657074696f6e2d5461673a2072687565706562696b63696c77676c720d0a0d0a3142460d0af72edb724388e4934fc74c4314f466fd828d01000050020000a0ffffffffd800000010000100b00a000c000600050008000a0f00e30104000c000000080008000000040600b100000300000084000000381600a0000094ffffff000000022600f1081800000007000000737065616b65720008000c000800073c00920000000120000000c43000100a3000501c0000000930008174617274735f61747000008600130834001102640000740071555443000c001018003107000c9c004000000005480013148c0040636f6e66160011040200200000e00013f82000000200330c0016e200034000210304b40010701d00010200510a0018000cee00000401138c1c01004c0004020000e0000f0200050088000002000054000002001024050041000000400600060200041000001001000200106005000702000410000298010202000004010888000002000f10000d00020000600157120000001b90009f536d61727444617461090008003c00f11000eced753b0506000091b5e99821060000a8db656640060000da20f7235c062300c001000000000000000100000063cd68e160adf9b76ef9f8661c63425282120000000800000080ffffffff000000000d0a300d0a0d0a"/>
  </proto>
  <proto name="http" showname="Hypertext Transfer Protocol, has 2 chunks (including last chunk)" size="802" pos="56">
    <field name="" show="HTTP/1.1 200 OK\r\n" size="17" pos="56" value="485454502f312e3120323030204f4b0d0a">
      <field name="http.response.version" showname="Response Version: HTTP/1.1" size="8" pos="56" show="HTTP/1.1" value="485454502f312e31"/>
      <field name="http.response.code" showname="Status Code: 200" size="3" pos="65" show="200" value="323030"/>
      <field name="http.response.code.desc" showname="Status Code Description: OK" size="3" pos="65" show="OK" value="323030"/>
      <field name="http.response.phrase" showname="Response Phrase: OK" size="2" pos="69" show="OK" value="4f4b"/>
    </field>
    <field name="http.response.line" showname="X-ClickHouse-Summary: {&quot;read_rows&quot;:&quot;4&quot;,&quot;read_bytes&quot;:&quot;116&quot;,&quot;written_rows&quot;:&quot;0&quot;,&quot;written_bytes&quot;:&quot;0&quot;,&quot;total_rows_to_read&quot;:&quot;4&quot;,&quot;result_rows&quot;:&quot;4&quot;,&quot;result_bytes&quot;:&quot;1024&quot;,&quot;elapsed_ns&quot;:&quot;1837208&quot;,&quot;memory_usage&quot;:&quot;2189630&quot;}\r\n" size="212" pos="73" show="X-ClickHouse-Summary: {&quot;read_rows&quot;:&quot;4&quot;,&quot;read_bytes&quot;:&quot;116&quot;,&quot;written_rows&quot;:&quot;0&quot;,&quot;written_bytes&quot;:&quot;0&quot;,&quot;total_rows_to_read&quot;:&quot;4&quot;,&quot;result_rows&quot;:&quot;4&quot;,&quot;result_bytes&quot;:&quot;1024&quot;,&quot;elapsed_ns&quot;:&quot;1837208&quot;,&quot;memory_usage&quot;:&quot;2189630&quot;}
" value="582d436c69636b486f7573652d53756d6d6172793a207b22726561645f726f7773223a2234222c22726561645f6279746573223a22313136222c227772697474656e5f726f7773223a2230222c227772697474656e5f6279746573223a2230222c22746f74616c5f726f77735f746f5f72656164223a2234222c22726573756c745f726f7773223a2234222c22726573756c745f6279746573223a2231303234222c22656c61707365645f6e73223a2231383337323038222c226d656d6f72795f7573616765223a2232313839363330227d0d0a"/>
    <field name="http.date" showname="Date: Mon, 14 Sep 2026 03:56:27 GMT\r\n" size="37" pos="285" show="Mon, 14 Sep 2026 03:56:27 GMT" value="446174653a204d6f6e2c2031342053657020323032362030333a35363a323720474d540d0a"/>
    <field name="http.response.line" showname="Date: Mon, 14 Sep 2026 03:56:27 GMT\r\n" hide="yes" size="37" pos="285" show="Date: Mon, 14 Sep 2026 03:56:27 GMT
" value="446174653a204d6f6e2c2031342053657020323032362030333a35363a323720474d540d0a"/>
    <field name="http.connection" showname="Connection: Keep-Alive\r\n" size="24" pos="322" show="Keep-Alive" value="436f6e6e656374696f6e3a204b6565702d416c6976650d0a"/>
    <field name="http.response.line" showname="Connection: Keep-Alive\r\n" hide="yes" size="24" pos="322" show="Connection: Keep-Alive
" value="436f6e6e656374696f6e3a204b6565702d416c6976650d0a"/>
    <field name="http.content_type" showname="Content-Type: application/octet-stream\r\n" size="40" pos="346" show="application/octet-stream" value="436f6e74656e742d547970653a206170706c69636174696f6e2f6f637465742d73747265616d0d0a"/>
    <field name="http.response.line" showname="Content-Type: application/octet-stream\r\n" hide="yes" size="40" pos="346" show="Content-Type: application/octet-stream
" value="436f6e74656e742d547970653a206170706c69636174696f6e2f6f637465742d73747265616d0d0a"/>
    <field name="http.response.line" showname="Access-Control-Expose-Headers: X-ClickHouse-Query-Id,X-ClickHouse-Summary,X-ClickHouse-Server-Display-Name,X-ClickHouse-Format,X-ClickHouse-Timezone,X-ClickHouse-Exception-Code,X-ClickHouse-Exception-Tag\r\n" size="205" pos="386" show="Access-Control-Expose-Headers: X-ClickHouse-Query-Id,X-ClickHouse-Summary,X-ClickHouse-Server-Display-Name,X-ClickHouse-Format,X-ClickHouse-Timezone,X-ClickHouse-Exception-Code,X-ClickHouse-Exception-Tag
" value="4163636573732d436f6e74726f6c2d4578706f73652d486561646572733a20582d436c69636b486f7573652d51756572792d49642c582d436c69636b486f7573652d53756d6d6172792c582d436c69636b486f7573652d5365727665722d446973706c61792d4e616d652c582d436c69636b486f7573652d466f726d61742c582d436c69636b486f7573652d54696d657a6f6e652c582d436c69636b486f7573652d457863657074696f6e2d436f64652c582d436c69636b486f7573652d457863657074696f6e2d5461670d0a"/>
    <field name="http.response.line" showname="X-ClickHouse-Server-Display-Name: e32daa6288e0\r\n" size="48" pos="591" show="X-ClickHouse-Server-Display-Name: e32daa6288e0
" value="582d436c69636b486f7573652d5365727665722d446973706c61792d4e616d653a206533326461613632383865300d0a"/>
    <field name="http.transfer_encoding" showname="Transfer-Encoding: chunked\r\n" size="28" pos="639" show="chunked" value="5472616e736665722d456e636f64696e673a206368756e6b65640d0a"/>
    <field name="http.response.line" showname="Transfer-Encoding: chunked\r\n" hide="yes" size="28" pos="639" show="Transfer-Encoding: chunked
" value="5472616e736665722d456e636f64696e673a206368756e6b65640d0a"/>
    <field name="http.response.line" showname="X-ClickHouse-Query-Id: query_UucSV1pBWf9s8mqC\r\n" size="47" pos="667" show="X-ClickHouse-Query-Id: query_UucSV1pBWf9s8mqC
" value="582d436c69636b486f7573652d51756572792d49643a2071756572795f557563535631704257663973386d71430d0a"/>
    <field name="http.response.line" showname="X-ClickHouse-Format: ArrowStream\r\n" size="34" pos="714" show="X-ClickHouse-Format: ArrowStream
" value="582d436c69636b486f7573652d466f726d61743a204172726f7753747265616d0d0a"/>
    <field name="http.response.line" showname="X-ClickHouse-Timezone: UTC\r\n" size="28" pos="748" show="X-ClickHouse-Timezone: UTC
" value="582d436c69636b486f7573652d54696d657a6f6e653a205554430d0a"/>
    <field name="http.response.line" showname="Keep-Alive: timeout=30, max=9999\r\n" size="34" pos="776" show="Keep-Alive: timeout=30, max=9999
" value="4b6565702d416c6976653a2074696d656f75743d33302c206d61783d393939390d0a"/>
    <field name="http.response.line" showname="X-ClickHouse-Exception-Tag: rhuepebikcilwglr\r\n" size="46" pos="810" show="X-ClickHouse-Exception-Tag: rhuepebikcilwglr
" value="582d436c69636b486f7573652d457863657074696f6e2d5461673a2072687565706562696b63696c77676c720d0a"/>
    <field name="" show="\r\n" size="2" pos="856" value="0d0a"/>
    <field name="http.response" showname="Response: True" hide="yes" size="0" pos="56" show="True"/>
    <field name="http.request_in" showname="Request in frame: 5" size="0" pos="56" show="5"/>
    <field name="http.time" showname="Time since request: 3.926000 milliseconds" size="0" pos="56" show="0.003926000"/>
    <field name="http.request.uri" showname="Request URI: /?default_format=ArrowStream&amp;compress=1&amp;query_id=query_UucSV1pBWf9s8mqC&amp;session_id=session_vVwxOfRloQZHzzSS&amp;output_format_arrow_compression_method=none" size="0" pos="56" show="/?default_format=ArrowStream&amp;compress=1&amp;query_id=query_UucSV1pBWf9s8mqC&amp;session_id=session_vVwxOfRloQZHzzSS&amp;output_format_arrow_compression_method=none"/>
    <field name="http.request.full_uri" showname="Full request URI: http://127.0.0.1:18123/?default_format=ArrowStream&amp;compress=1&amp;query_id=query_UucSV1pBWf9s8mqC&amp;session_id=session_vVwxOfRloQZHzzSS&amp;output_format_arrow_compression_method=none" size="0" pos="56" show="http://127.0.0.1:18123/?default_format=ArrowStream&amp;compress=1&amp;query_id=query_UucSV1pBWf9s8mqC&amp;session_id=session_vVwxOfRloQZHzzSS&amp;output_format_arrow_compression_method=none"/>
    <field name="" show="HTTP chunked response" size="459" pos="858" value="3142460d0af72edb724388e4934fc74c4314f466fd828d01000050020000a0ffffffffd800000010000100b00a000c000600050008000a0f00e30104000c000000080008000000040600b100000300000084000000381600a0000094ffffff000000022600f1081800000007000000737065616b65720008000c000800073c00920000000120000000c43000100a3000501c0000000930008174617274735f61747000008600130834001102640000740071555443000c001018003107000c9c004000000005480013148c0040636f6e66160011040200200000e00013f82000000200330c0016e200034000210304b40010701d00010200510a0018000cee00000401138c1c01004c0004020000e0000f0200050088000002000054000002001024050041000000400600060200041000001001000200106005000702000410000298010202000004010888000002000f10000d00020000600157120000001b90009f536d61727444617461090008003c00f11000eced753b0506000091b5e99821060000a8db656640060000da20f7235c062300c001000000000000000100000063cd68e160adf9b76ef9f8661c63425282120000000800000080ffffffff000000000d0a300d0a0d0a">
      <field name="" show="Data chunk (447 octets)" size="454" pos="858" value="3142460d0af72edb724388e4934fc74c4314f466fd828d01000050020000a0ffffffffd800000010000100b00a000c000600050008000a0f00e30104000c000000080008000000040600b100000300000084000000381600a0000094ffffff000000022600f1081800000007000000737065616b65720008000c000800073c00920000000120000000c43000100a3000501c0000000930008174617274735f61747000008600130834001102640000740071555443000c001018003107000c9c004000000005480013148c0040636f6e66160011040200200000e00013f82000000200330c0016e200034000210304b40010701d00010200510a0018000cee00000401138c1c01004c0004020000e0000f0200050088000002000054000002001024050041000000400600060200041000001001000200106005000702000410000298010202000004010888000002000f10000d00020000600157120000001b90009f536d61727444617461090008003c00f11000eced753b0506000091b5e99821060000a8db656640060000da20f7235c062300c001000000000000000100000063cd68e160adf9b76ef9f8661c63425282120000000800000080ffffffff000000000d0a">
        <field name="http.chunk_size" showname="Chunk size: 447 octets" size="5" pos="858" show="447" value="3142460d0a"/>
        <field name="http.chunk_data" showname="Chunk data […]: f72edb724388e4934fc74c4314f466fd828d01000050020000a0ffffffffd800000010000100b00a000c000600050008000a0f00e30104000c000000080008000000040600b100000300000084000000381600a0000094ffffff000000022600f1081800000007000000737065616" size="447" pos="863" show="f7:2e:db:72:43:88:e4:93:4f:c7:4c:43:14:f4:66:fd:82:8d:01:00:00:50:02:00:00:a0:ff:ff:ff:ff:d8:00:00:00:10:00:01:00:b0:0a:00:0c:00:06:00:05:00:08:00:0a:0f:00:e3:01:04:00:0c:00:00:00:08:00:08:00:00:00:04:06:00:b1:00:00:03:00:00:00:84:00:00:00:38:16:00:a0:00:00:94:ff:ff:ff:00:00:00:02:26:00:f1:08:18:00:00:00:07:00:00:00:73:70:65:61:6b:65:72:00:08:00:0c:00:08:00:07:3c:00:92:00:00:00:01:20:00:00:00:c4:30:00:10:0a:30:00:50:1c:00:00:00:09:30:00:81:74:61:72:74:73:5f:61:74:70:00:00:86:00:13:08:34:00:11:02:64:00:00:74:00:71:55:54:43:00:0c:00:10:18:00:31:07:00:0c:9c:00:40:00:00:00:05:48:00:13:14:8c:00:40:63:6f:6e:66:16:00:11:04:02:00:20:00:00:e0:00:13:f8:20:00:00:02:00:33:0c:00:16:e2:00:03:40:00:21:03:04:b4:00:10:70:1d:00:01:02:00:51:0a:00:18:00:0c:ee:00:00:04:01:13:8c:1c:01:00:4c:00:04:02:00:00:e0:00:0f:02:00:05:00:88:00:00:02:00:00:54:00:00:02:00:10:24:05:00:41:00:00:00:40:06:00:06:02:00:04:10:00:00:10:01:00:02:00:10:60:05:00:07:02:00:04:10:00:02:98:01:02:02:00:00:04:01:08:88:00:00:02:00:0f:10:00:0d:00:02:00:00:60:01:57:12:00:00:00:1b:90:00:9f:53:6d:61:72:74:44:61:74:61:09:00:08:00:3c:00:f1:10:00:ec:ed:75:3b:05:06:00:00:91:b5:e9:98:21:06:00:00:a8:db:65:66:40:06:00:00:da:20:f7:23:5c:06:23:00:c0:01:00:00:00:00:00:00:00:01:00:00:00:63:cd:68:e1:60:ad:f9:b7:6e:f9:f8:66:1c:63:42:52:82:12:00:00:00:08:00:00:00:80:ff:ff:ff:ff:00:00:00:00" value="f72edb724388e4934fc74c4314f466fd828d01000050020000a0ffffffffd800000010000100b00a000c000600050008000a0f00e30104000c000000080008000000040600b100000300000084000000381600a0000094ffffff000000022600f1081800000007000000737065616b65720008000c000800073c00920000000120000000c43000100a3000501c0000000930008174617274735f61747000008600130834001102640000740071555443000c001018003107000c9c004000000005480013148c0040636f6e66160011040200200000e00013f82000000200330c0016e200034000210304b40010701d00010200510a0018000cee00000401138c1c01004c0004020000e0000f0200050088000002000054000002001024050041000000400600060200041000001001000200106005000702000410000298010202000004010888000002000f10000d00020000600157120000001b90009f536d61727444617461090008003c00f11000eced753b0506000091b5e99821060000a8db656640060000da20f7235c062300c001000000000000000100000063cd68e160adf9b76ef9f8661c63425282120000000800000080ffffffff00000000"/>
        <field name="http.chunk_boundary" showname="Chunk boundary: 0d0a" size="2" pos="1310" show="0d:0a" value="0d0a"/>
      </field>
      <field name="" show="End of chunked encoding" size="5" pos="1312" value="300d0a0d0a">
        <field name="http.chunk_size" showname="Chunk size: 0 octets" size="3" pos="1312" show="0" value="300d0a"/>
      </field>
      <field name="" show="\r\n" size="2" pos="1315" value="0d0a"/>
    </field>
    <field name="http.file_data" showname="File Data: 447 bytes" size="447" pos="56" show="f7:2e:db:72:43:88:e4:93:4f:c7:4c:43:14:f4:66:fd:82:8d:01:00:00:50:02:00:00:a0:ff:ff:ff:ff:d8:00:00:00:10:00:01:00:b0:0a:00:0c:00:06:00:05:00:08:00:0a:0f:00:e3:01:04:00:0c:00:00:00:08:00:08:00:00:00:04:06:00:b1:00:00:03:00:00:00:84:00:00:00:38:16:00:a0:00:00:94:ff:ff:ff:00:00:00:02:26:00:f1:08:18:00:00:00:07:00:00:00:73:70:65:61:6b:65:72:00:08:00:0c:00:08:00:07:3c:00:92:00:00:00:01:20:00:00:00:c4:30:00:10:0a:30:00:50:1c:00:00:00:09:30:00:81:74:61:72:74:73:5f:61:74:70:00:00:86:00:13:08:34:00:11:02:64:00:00:74:00:71:55:54:43:00:0c:00:10:18:00:31:07:00:0c:9c:00:40:00:00:00:05:48:00:13:14:8c:00:40:63:6f:6e:66:16:00:11:04:02:00:20:00:00:e0:00:13:f8:20:00:00:02:00:33:0c:00:16:e2:00:03:40:00:21:03:04:b4:00:10:70:1d:00:01:02:00:51:0a:00:18:00:0c:ee:00:00:04:01:13:8c:1c:01:00:4c:00:04:02:00:00:e0:00:0f:02:00:05:00:88:00:00:02:00:00:54:00:00:02:00:10:24:05:00:41:00:00:00:40:06:00:06:02:00:04:10:00:00:10:01:00:02:00:10:60:05:00:07:02:00:04:10:00:02:98:01:02:02:00:00:04:01:08:88:00:00:02:00:0f:10:00:0d:00:02:00:00:60:01:57:12:00:00:00:1b:90:00:9f:53:6d:61:72:74:44:61:74:61:09:00:08:00:3c:00:f1:10:00:ec:ed:75:3b:05:06:00:00:91:b5:e9:98:21:06:00:00:a8:db:65:66:40:06:00:00:da:20:f7:23:5c:06:23:00:c0:01:00:00:00:00:00:00:00:01:00:00:00:63:cd:68:e1:60:ad:f9:b7:6e:f9:f8:66:1c:63:42:52:82:12:00:00:00:08:00:00:00:80:ff:ff:ff:ff:00:00:00:00" value="f72edb724388e4934fc74c4314f466fd828d01000050020000a0ffffffffd800000010000100b00a000c000600050008000a0f00e30104000c000000080008000000040600b100000300000084000000381600a0000094ffffff000000022600f1081800000007000000737065616b65720008000c000800073c00920000000120000000c43000100a3000501c0000000930008174617274735f61747000008600130834001102640000740071555443000c001018003107000c9c004000000005480013148c0040636f6e66160011040200200000e00013f82000000200330c0016e200034000210304b40010701d00010200510a0018000cee00000401138c1c01004c0004020000e0000f0200050088000002000054000002001024050041000000400600060200041000001001000200106005000702000410000298010202000004010888000002000f10000d00020000600157120000001b90009f536d61727444617461090008003c00f11000eced753b0506000091b5e99821060000a8db656640060000da20f7235c062300c001000000000000000100000063cd68e160adf9b76ef9f8661c63425282120000000800000080ffffffff00000000"/>
  </proto>
  <proto name="fake-field-wrapper">
    <field name="data" value="f72edb724388e4934fc74c4314f466fd828d01000050020000a0ffffffffd800000010000100b00a000c000600050008000a0f00e30104000c000000080008000000040600b100000300000084000000381600a0000094ffffff000000022600f1081800000007000000737065616b65720008000c000800073c00920000000120000000c43000100a3000501c0000000930008174617274735f61747000008600130834001102640000740071555443000c001018003107000c9c004000000005480013148c0040636f6e66160011040200200000e00013f82000000200330c0016e200034000210304b40010701d00010200510a0018000cee00000401138c1c01004c0004020000e0000f0200050088000002000054000002001024050041000000400600060200041000001001000200106005000702000410000298010202000004010888000002000f10000d00020000600157120000001b90009f536d61727444617461090008003c00f11000eced753b0506000091b5e99821060000a8db656640060000da20f7235c062300c001000000000000000100000063cd68e160adf9b76ef9f8661c63425282120000000800000080ffffffff00000000">
      <field name="data.data" showname="Data […]: f72edb724388e4934fc74c4314f466fd828d01000050020000a0ffffffffd800000010000100b00a000c000600050008000a0f00e30104000c000000080008000000040600b100000300000084000000381600a0000094ffffff000000022600f1081800000007000000737065616b65720" size="447" pos="0" show="f7:2e:db:72:43:88:e4:93:4f:c7:4c:43:14:f4:66:fd:82:8d:01:00:00:50:02:00:00:a0:ff:ff:ff:ff:d8:00:00:00:10:00:01:00:b0:0a:00:0c:00:06:00:05:00:08:00:0a:0f:00:e3:01:04:00:0c:00:00:00:08:00:08:00:00:00:04:06:00:b1:00:00:03:00:00:00:84:00:00:00:38:16:00:a0:00:00:94:ff:ff:ff:00:00:00:02:26:00:f1:08:18:00:00:00:07:00:00:00:73:70:65:61:6b:65:72:00:08:00:0c:00:08:00:07:3c:00:92:00:00:00:01:20:00:00:00:c4:30:00:10:0a:30:00:50:1c:00:00:00:09:30:00:81:74:61:72:74:73:5f:61:74:70:00:00:86:00:13:08:34:00:11:02:64:00:00:74:00:71:55:54:43:00:0c:00:10:18:00:31:07:00:0c:9c:00:40:00:00:00:05:48:00:13:14:8c:00:40:63:6f:6e:66:16:00:11:04:02:00:20:00:00:e0:00:13:f8:20:00:00:02:00:33:0c:00:16:e2:00:03:40:00:21:03:04:b4:00:10:70:1d:00:01:02:00:51:0a:00:18:00:0c:ee:00:00:04:01:13:8c:1c:01:00:4c:00:04:02:00:00:e0:00:0f:02:00:05:00:88:00:00:02:00:00:54:00:00:02:00:10:24:05:00:41:00:00:00:40:06:00:06:02:00:04:10:00:00:10:01:00:02:00:10:60:05:00:07:02:00:04:10:00:02:98:01:02:02:00:00:04:01:08:88:00:00:02:00:0f:10:00:0d:00:02:00:00:60:01:57:12:00:00:00:1b:90:00:9f:53:6d:61:72:74:44:61:74:61:09:00:08:00:3c:00:f1:10:00:ec:ed:75:3b:05:06:00:00:91:b5:e9:98:21:06:00:00:a8:db:65:66:40:06:00:00:da:20:f7:23:5c:06:23:00:c0:01:00:00:00:00:00:00:00:01:00:00:00:63:cd:68:e1:60:ad:f9:b7:6e:f9:f8:66:1c:63:42:52:82:12:00:00:00:08:00:00:00:80:ff:ff:ff:ff:00:00:00:00" value="f72edb724388e4934fc74c4314f466fd828d01000050020000a0ffffffffd800000010000100b00a000c000600050008000a0f00e30104000c000000080008000000040600b100000300000084000000381600a0000094ffffff000000022600f1081800000007000000737065616b65720008000c000800073c00920000000120000000c43000100a3000501c0000000930008174617274735f61747000008600130834001102640000740071555443000c001018003107000c9c004000000005480013148c0040636f6e66160011040200200000e00013f82000000200330c0016e200034000210304b40010701d00010200510a0018000cee00000401138c1c01004c0004020000e0000f0200050088000002000054000002001024050041000000400600060200041000001001000200106005000702000410000298010202000004010888000002000f10000d00020000600157120000001b90009f536d61727444617461090008003c00f11000eced753b0506000091b5e99821060000a8db656640060000da20f7235c062300c001000000000000000100000063cd68e160adf9b76ef9f8661c63425282120000000800000080ffffffff00000000"/>
      <field name="data.len" showname="Length: 447" size="0" pos="0" show="447"/>
  </field>
  </proto>
</packet>


<packet>
  <proto name="geninfo" pos="0" showname="General information" size="56">
    <field name="num" pos="0" show="8" showname="Number" value="8" size="56"/>
    <field name="len" pos="0" show="56" showname="Frame Length" value="38" size="56"/>
    <field name="caplen" pos="0" show="56" showname="Captured Length" value="38" size="56"/>
    <field name="timestamp" pos="0" show="Sep 14, 2026 06:56:27.368611000 MSK" showname="Captured Time" value="1789358187.368611000" size="56"/>
  </proto>
  <proto name="frame" showname="Frame 8: Packet, 56 bytes on wire (448 bits), 56 bytes captured (448 bits) on interface lo0, id 0" size="56" pos="0">
    <field name="frame.section_number" showname="Section number: 1" size="0" pos="0" show="1"/>
    <field name="frame.interface_id" showname="Interface id: 0 (lo0)" size="0" pos="0" show="0">
      <field name="frame.interface_name" showname="Interface name: lo0" size="0" pos="0" show="lo0"/>
      <field name="frame.interface_description" showname="Interface description: Loopback" size="0" pos="0" show="Loopback"/>
    </field>
    <field name="frame.encap_type" showname="Encapsulation type: NULL/Loopback (15)" size="0" pos="0" show="15"/>
    <field name="frame.time" showname="Arrival Time: Sep 14, 2026 06:56:27.368611000 MSK" size="0" pos="0" show="2026-09-14T06:56:27.368611000+0300"/>
    <field name="frame.time_utc" showname="UTC Arrival Time: Sep 14, 2026 03:56:27.368611000 UTC" size="0" pos="0" show="2026-09-14T03:56:27.368611000Z"/>
    <field name="frame.time_epoch" showname="Epoch Arrival Time: 1789358187.368611000" size="0" pos="0" show="1789358187.368611000"/>
    <field name="frame.offset_shift" showname="Time shift for this packet: 0.000000000 seconds" size="0" pos="0" show="0.000000000"/>
    <field name="frame.time_delta" showname="Time delta from previous captured frame: 44.000 microseconds" size="0" pos="0" show="0.000044000"/>
    <field name="frame.time_delta_displayed" showname="Time delta from previous displayed frame: 44.000 microseconds" size="0" pos="0" show="0.000044000"/>
    <field name="frame.time_relative" showname="Time since reference or first frame: 4.871000 milliseconds" size="0" pos="0" show="0.004871000"/>
    <field name="frame.number" showname="Frame Number: 8" size="0" pos="0" show="8"/>
    <field name="frame.len" showname="Frame Length: 56 bytes (448 bits)" size="0" pos="0" show="56"/>
    <field name="frame.cap_len" showname="Capture Length: 56 bytes (448 bits)" size="0" pos="0" show="56"/>
    <field name="frame.marked" showname="Frame is marked: False" size="0" pos="0" show="False"/>
    <field name="frame.ignored" showname="Frame is ignored: False" size="0" pos="0" show="False"/>
    <field name="frame.protocols" showname="Protocols in frame: null:ip:tcp" size="0" pos="0" show="null:ip:tcp"/>
    <field name="frame.encoding" showname="Character encoding: ASCII (0)" size="0" pos="0" show="0"/>
  </proto>
  <proto name="null" showname="Null/Loopback" size="4" pos="0">
    <field name="null.family" showname="Family: IP (2)" size="4" pos="0" show="2" value="02000000"/>
  </proto>
  <proto name="ip" showname="Internet Protocol Version 4, Src: 127.0.0.1, Dst: 127.0.0.1" size="20" pos="4">
    <field name="ip.version" showname="0100 .... = Version: 4" size="1" pos="4" show="4" value="45"/>
    <field name="ip.hdr_len" showname=".... 0101 = Header Length: 20 bytes (5)" size="1" pos="4" show="20" value="45"/>
    <field name="ip.dsfield" showname="Differentiated Services Field: 0x00 (DSCP: CS0, ECN: Not-ECT)" size="1" pos="5" show="0x00" value="00">
      <field name="ip.dsfield.dscp" showname="0000 00.. = Differentiated Services Codepoint: Default (0)" size="1" pos="5" show="0" value="0" unmaskedvalue="00"/>
      <field name="ip.dsfield.ecn" showname=".... ..00 = Explicit Congestion Notification: Not ECN-Capable Transport (0)" size="1" pos="5" show="0" value="0" unmaskedvalue="00"/>
    </field>
    <field name="ip.len" showname="Total Length: 52" size="2" pos="6" show="52" value="0034"/>
    <field name="ip.id" showname="Identification: 0x0000 (0)" size="2" pos="8" show="0x0000" value="0000"/>
    <field name="ip.flags" showname="010. .... = Flags: 0x2, Don&#x27;t fragment" size="1" pos="10" show="0x02" value="2" unmaskedvalue="40">
      <field name="ip.flags.rb" showname="0... .... = Reserved bit: Not set" size="1" pos="10" show="False" value="0" unmaskedvalue="40"/>
      <field name="ip.flags.df" showname=".1.. .... = Don&#x27;t fragment: Set" size="1" pos="10" show="True" value="1" unmaskedvalue="40"/>
      <field name="ip.flags.mf" showname="..0. .... = More fragments: Not set" size="1" pos="10" show="False" value="0" unmaskedvalue="40"/>
    </field>
    <field name="ip.frag_offset" showname="...0 0000 0000 0000 = Fragment Offset: 0" size="2" pos="10" show="0" value="0" unmaskedvalue="4000"/>
    <field name="ip.ttl" showname="Time to Live: 64" size="1" pos="12" show="64" value="40"/>
    <field name="ip.proto" showname="Protocol: TCP (6)" size="1" pos="13" show="6" value="06"/>
    <field name="ip.checksum" showname="Header Checksum: 0x0000 [validation disabled]" size="2" pos="14" show="0x0000" value="0000"/>
    <field name="ip.checksum.status" showname="Header checksum status: Unverified" size="0" pos="14" show="2"/>
    <field name="ip.src" showname="Source Address: 127.0.0.1" size="4" pos="16" show="127.0.0.1" value="7f000001"/>
    <field name="ip.addr" showname="Source or Destination Address: 127.0.0.1" hide="yes" size="4" pos="16" show="127.0.0.1" value="7f000001"/>
    <field name="ip.src_host" showname="Source Host: 127.0.0.1" hide="yes" size="4" pos="16" show="127.0.0.1" value="7f000001"/>
    <field name="ip.host" showname="Source or Destination Host: 127.0.0.1" hide="yes" size="4" pos="16" show="127.0.0.1" value="7f000001"/>
    <field name="ip.dst" showname="Destination Address: 127.0.0.1" size="4" pos="20" show="127.0.0.1" value="7f000001"/>
    <field name="ip.addr" showname="Source or Destination Address: 127.0.0.1" hide="yes" size="4" pos="20" show="127.0.0.1" value="7f000001"/>
    <field name="ip.dst_host" showname="Destination Host: 127.0.0.1" hide="yes" size="4" pos="20" show="127.0.0.1" value="7f000001"/>
    <field name="ip.host" showname="Source or Destination Host: 127.0.0.1" hide="yes" size="4" pos="20" show="127.0.0.1" value="7f000001"/>
    <field name="ip.stream" showname="Stream index: 0" size="0" pos="24" show="0"/>
  </proto>
  <proto name="tcp" showname="Transmission Control Protocol, Src Port: 56100, Dst Port: 18123, Seq: 445, Ack: 1262, Len: 0" size="32" pos="24">
    <field name="tcp.srcport" showname="Source Port: 56100" size="2" pos="24" show="56100" value="db24"/>
    <field name="tcp.dstport" showname="Destination Port: 18123" size="2" pos="26" show="18123" value="46cb"/>
    <field name="tcp.port" showname="Source or Destination Port: 56100" hide="yes" size="2" pos="24" show="56100" value="db24"/>
    <field name="tcp.port" showname="Source or Destination Port: 18123" hide="yes" size="2" pos="26" show="18123" value="46cb"/>
    <field name="tcp.stream" showname="Stream index: 0" size="0" pos="24" show="0"/>
    <field name="tcp.stream.pnum" showname="Stream Packet Number: 8" size="0" pos="24" show="8"/>
    <field name="tcp.completeness" showname="Conversation completeness: Incomplete, DATA (15)" size="0" pos="24" show="15">
      <field name="tcp.completeness.rst" showname="..0. .... = RST: Absent" size="0" pos="0" show="False"/>
      <field name="tcp.completeness.fin" showname="...0 .... = FIN: Absent" size="0" pos="0" show="False"/>
      <field name="tcp.completeness.data" showname=".... 1... = Data: Present" size="0" pos="0" show="True"/>
      <field name="tcp.completeness.ack" showname=".... .1.. = ACK: Present" size="0" pos="0" show="True"/>
      <field name="tcp.completeness.syn-ack" showname=".... ..1. = SYN-ACK: Present" size="0" pos="0" show="True"/>
      <field name="tcp.completeness.syn" showname=".... ...1 = SYN: Present" size="0" pos="0" show="True"/>
      <field name="tcp.completeness.str" showname="Completeness Flags: ··DASS" size="0" pos="24" show="··DASS"/>
    </field>
    <field name="tcp.len" showname="TCP Segment Len: 0" size="0" pos="24" show="0"/>
    <field name="tcp.seq" showname="Sequence Number: 445    (relative sequence number)" size="4" pos="28" show="445" value="032b0a57"/>
    <field name="tcp.seq_raw" showname="Sequence Number (raw): 53152343" size="4" pos="28" show="53152343" value="032b0a57"/>
    <field name="tcp.nxtseq" showname="Next Sequence Number: 445    (relative sequence number)" size="0" pos="24" show="445"/>
    <field name="tcp.ack" showname="Acknowledgment Number: 1262    (relative ack number)" size="4" pos="32" show="1262" value="87698f34"/>
    <field name="tcp.ack_raw" showname="Acknowledgment number (raw): 2271842100" size="4" pos="32" show="2271842100" value="87698f34"/>
    <field name="tcp.hdr_len" showname="1000 .... = Header Length: 32 bytes (8)" size="1" pos="36" show="32" value="80"/>
    <field name="tcp.flags" showname="Flags: 0x010 (ACK)" size="2" pos="36" show="0x0010" value="10" unmaskedvalue="8010">
      <field name="tcp.flags.res" showname="000. .... .... = Reserved: Not set" size="1" pos="36" show="False" value="0" unmaskedvalue="80"/>
      <field name="tcp.flags.ae" showname="...0 .... .... = Accurate ECN: Not set" size="1" pos="36" show="False" value="0" unmaskedvalue="80"/>
      <field name="tcp.flags.cwr" showname=".... 0... .... = Congestion Window Reduced: Not set" size="1" pos="37" show="False" value="0" unmaskedvalue="10"/>
      <field name="tcp.flags.ece" showname=".... .0.. .... = ECN-Echo: Not set" size="1" pos="37" show="False" value="0" unmaskedvalue="10"/>
      <field name="tcp.flags.urg" showname=".... ..0. .... = Urgent: Not set" size="1" pos="37" show="False" value="0" unmaskedvalue="10"/>
      <field name="tcp.flags.ack" showname=".... ...1 .... = Acknowledgment: Set" size="1" pos="37" show="True" value="1" unmaskedvalue="10"/>
      <field name="tcp.flags.push" showname=".... .... 0... = Push: Not set" size="1" pos="37" show="False" value="0" unmaskedvalue="10"/>
      <field name="tcp.flags.reset" showname=".... .... .0.. = Reset: Not set" size="1" pos="37" show="False" value="0" unmaskedvalue="10"/>
      <field name="tcp.flags.syn" showname=".... .... ..0. = Syn: Not set" size="1" pos="37" show="False" value="0" unmaskedvalue="10"/>
      <field name="tcp.flags.fin" showname=".... .... ...0 = Fin: Not set" size="1" pos="37" show="False" value="0" unmaskedvalue="10"/>
      <field name="tcp.flags.str" showname="TCP Flags: ·······A····" size="2" pos="36" show="·······A····" value="8010"/>
    </field>
    <field name="tcp.window_size_value" showname="Window: 6361" size="2" pos="38" show="6361" value="18d9"/>
    <field name="tcp.window_size" showname="Calculated window size: 407104" size="2" pos="38" show="407104" value="18d9"/>
    <field name="tcp.window_size_scalefactor" showname="Window size scaling factor: 64" size="2" pos="38" show="64" value="18d9"/>
    <field name="tcp.checksum" showname="Checksum: 0xfe28 [unverified]" size="2" pos="40" show="0xfe28" value="fe28"/>
    <field name="tcp.checksum.status" showname="Checksum Status: Unverified" size="0" pos="40" show="2"/>
    <field name="tcp.urgent_pointer" showname="Urgent Pointer: 0" size="2" pos="42" show="0" value="0000"/>
    <field name="tcp.options" showname="Options: (12 bytes), No-Operation (NOP), No-Operation (NOP), Timestamps" size="12" pos="44" show="01:01:08:0a:f6:cf:64:31:23:e9:ab:16" value="0101080af6cf643123e9ab16">
      <field name="tcp.options.nop" showname="TCP Option - No-Operation (NOP)" size="1" pos="44" show="01" value="01">
        <field name="tcp.option_kind" showname="Kind: No-Operation (1)" size="1" pos="44" show="1" value="01"/>
      </field>
      <field name="tcp.options.nop" showname="TCP Option - No-Operation (NOP)" size="1" pos="45" show="01" value="01">
        <field name="tcp.option_kind" showname="Kind: No-Operation (1)" size="1" pos="45" show="1" value="01"/>
      </field>
      <field name="tcp.options.timestamp" showname="TCP Option - Timestamps: TSval 4140786737, TSecr 602516246" size="10" pos="46" show="08:0a:f6:cf:64:31:23:e9:ab:16" value="080af6cf643123e9ab16">
        <field name="tcp.option_kind" showname="Kind: Time Stamp Option (8)" size="1" pos="46" show="8" value="08"/>
        <field name="tcp.option_len" showname="Length: 10" size="1" pos="47" show="10" value="0a"/>
        <field name="tcp.options.timestamp.tsval" showname="Timestamp value: 4140786737" size="4" pos="48" show="4140786737" value="f6cf6431"/>
        <field name="tcp.options.timestamp.tsecr" showname="Timestamp echo reply: 602516246" size="4" pos="52" show="602516246" value="23e9ab16"/>
      </field>
    </field>
    <field name="" show="Timestamps" size="0" pos="24">
      <field name="tcp.time_relative" showname="Time since first frame in this TCP stream: 4.871000 milliseconds" size="0" pos="24" show="0.004871000"/>
      <field name="tcp.time_delta" showname="Time since previous frame in this TCP stream: 44.000 microseconds" size="0" pos="24" show="0.000044000"/>
    </field>
    <field name="tcp.analysis" showname="SEQ/ACK analysis" size="0" pos="24" show="" value="">
      <field name="tcp.analysis.acks_frame" showname="This is an ACK to the segment in frame: 7" size="0" pos="24" show="7"/>
      <field name="tcp.analysis.ack_rtt" showname="The RTT to ACK the segment was: 44.000 microseconds" size="0" pos="24" show="0.000044000"/>
      <field name="tcp.analysis.initial_rtt" showname="iRTT: 120.000 microseconds" size="0" pos="24" show="0.000120000"/>
    </field>
    <field name="tcp.stream.client.contiguity_count" showname="Client Contiguous Streams: 1" size="0" pos="24" show="1"/>
    <field name="tcp.stream.server.contiguity_count" showname="Server Contiguous Streams: 1" size="0" pos="24" show="1"/>
  </proto>
</packet>


<packet>
  <proto name="geninfo" pos="0" showname="General information" size="56">
    <field name="num" pos="0" show="9" showname="Number" value="9" size="56"/>
    <field name="len" pos="0" show="56" showname="Frame Length" value="38" size="56"/>
    <field name="caplen" pos="0" show="56" showname="Captured Length" value="38" size="56"/>
    <field name="timestamp" pos="0" show="Sep 14, 2026 06:56:27.372587000 MSK" showname="Captured Time" value="1789358187.372587000" size="56"/>
  </proto>
  <proto name="frame" showname="Frame 9: Packet, 56 bytes on wire (448 bits), 56 bytes captured (448 bits) on interface lo0, id 0" size="56" pos="0">
    <field name="frame.section_number" showname="Section number: 1" size="0" pos="0" show="1"/>
    <field name="frame.interface_id" showname="Interface id: 0 (lo0)" size="0" pos="0" show="0">
      <field name="frame.interface_name" showname="Interface name: lo0" size="0" pos="0" show="lo0"/>
      <field name="frame.interface_description" showname="Interface description: Loopback" size="0" pos="0" show="Loopback"/>
    </field>
    <field name="frame.encap_type" showname="Encapsulation type: NULL/Loopback (15)" size="0" pos="0" show="15"/>
    <field name="frame.time" showname="Arrival Time: Sep 14, 2026 06:56:27.372587000 MSK" size="0" pos="0" show="2026-09-14T06:56:27.372587000+0300"/>
    <field name="frame.time_utc" showname="UTC Arrival Time: Sep 14, 2026 03:56:27.372587000 UTC" size="0" pos="0" show="2026-09-14T03:56:27.372587000Z"/>
    <field name="frame.time_epoch" showname="Epoch Arrival Time: 1789358187.372587000" size="0" pos="0" show="1789358187.372587000"/>
    <field name="frame.offset_shift" showname="Time shift for this packet: 0.000000000 seconds" size="0" pos="0" show="0.000000000"/>
    <field name="frame.time_delta" showname="Time delta from previous captured frame: 3.976000 milliseconds" size="0" pos="0" show="0.003976000"/>
    <field name="frame.time_delta_displayed" showname="Time delta from previous displayed frame: 3.976000 milliseconds" size="0" pos="0" show="0.003976000"/>
    <field name="frame.time_relative" showname="Time since reference or first frame: 8.847000 milliseconds" size="0" pos="0" show="0.008847000"/>
    <field name="frame.number" showname="Frame Number: 9" size="0" pos="0" show="9"/>
    <field name="frame.len" showname="Frame Length: 56 bytes (448 bits)" size="0" pos="0" show="56"/>
    <field name="frame.cap_len" showname="Capture Length: 56 bytes (448 bits)" size="0" pos="0" show="56"/>
    <field name="frame.marked" showname="Frame is marked: False" size="0" pos="0" show="False"/>
    <field name="frame.ignored" showname="Frame is ignored: False" size="0" pos="0" show="False"/>
    <field name="frame.protocols" showname="Protocols in frame: null:ip:tcp" size="0" pos="0" show="null:ip:tcp"/>
    <field name="frame.encoding" showname="Character encoding: ASCII (0)" size="0" pos="0" show="0"/>
  </proto>
  <proto name="null" showname="Null/Loopback" size="4" pos="0">
    <field name="null.family" showname="Family: IP (2)" size="4" pos="0" show="2" value="02000000"/>
  </proto>
  <proto name="ip" showname="Internet Protocol Version 4, Src: 127.0.0.1, Dst: 127.0.0.1" size="20" pos="4">
    <field name="ip.version" showname="0100 .... = Version: 4" size="1" pos="4" show="4" value="45"/>
    <field name="ip.hdr_len" showname=".... 0101 = Header Length: 20 bytes (5)" size="1" pos="4" show="20" value="45"/>
    <field name="ip.dsfield" showname="Differentiated Services Field: 0x00 (DSCP: CS0, ECN: Not-ECT)" size="1" pos="5" show="0x00" value="00">
      <field name="ip.dsfield.dscp" showname="0000 00.. = Differentiated Services Codepoint: Default (0)" size="1" pos="5" show="0" value="0" unmaskedvalue="00"/>
      <field name="ip.dsfield.ecn" showname=".... ..00 = Explicit Congestion Notification: Not ECN-Capable Transport (0)" size="1" pos="5" show="0" value="0" unmaskedvalue="00"/>
    </field>
    <field name="ip.len" showname="Total Length: 52" size="2" pos="6" show="52" value="0034"/>
    <field name="ip.id" showname="Identification: 0x0000 (0)" size="2" pos="8" show="0x0000" value="0000"/>
    <field name="ip.flags" showname="010. .... = Flags: 0x2, Don&#x27;t fragment" size="1" pos="10" show="0x02" value="2" unmaskedvalue="40">
      <field name="ip.flags.rb" showname="0... .... = Reserved bit: Not set" size="1" pos="10" show="False" value="0" unmaskedvalue="40"/>
      <field name="ip.flags.df" showname=".1.. .... = Don&#x27;t fragment: Set" size="1" pos="10" show="True" value="1" unmaskedvalue="40"/>
      <field name="ip.flags.mf" showname="..0. .... = More fragments: Not set" size="1" pos="10" show="False" value="0" unmaskedvalue="40"/>
    </field>
    <field name="ip.frag_offset" showname="...0 0000 0000 0000 = Fragment Offset: 0" size="2" pos="10" show="0" value="0" unmaskedvalue="4000"/>
    <field name="ip.ttl" showname="Time to Live: 64" size="1" pos="12" show="64" value="40"/>
    <field name="ip.proto" showname="Protocol: TCP (6)" size="1" pos="13" show="6" value="06"/>
    <field name="ip.checksum" showname="Header Checksum: 0x0000 [validation disabled]" size="2" pos="14" show="0x0000" value="0000"/>
    <field name="ip.checksum.status" showname="Header checksum status: Unverified" size="0" pos="14" show="2"/>
    <field name="ip.src" showname="Source Address: 127.0.0.1" size="4" pos="16" show="127.0.0.1" value="7f000001"/>
    <field name="ip.addr" showname="Source or Destination Address: 127.0.0.1" hide="yes" size="4" pos="16" show="127.0.0.1" value="7f000001"/>
    <field name="ip.src_host" showname="Source Host: 127.0.0.1" hide="yes" size="4" pos="16" show="127.0.0.1" value="7f000001"/>
    <field name="ip.host" showname="Source or Destination Host: 127.0.0.1" hide="yes" size="4" pos="16" show="127.0.0.1" value="7f000001"/>
    <field name="ip.dst" showname="Destination Address: 127.0.0.1" size="4" pos="20" show="127.0.0.1" value="7f000001"/>
    <field name="ip.addr" showname="Source or Destination Address: 127.0.0.1" hide="yes" size="4" pos="20" show="127.0.0.1" value="7f000001"/>
    <field name="ip.dst_host" showname="Destination Host: 127.0.0.1" hide="yes" size="4" pos="20" show="127.0.0.1" value="7f000001"/>
    <field name="ip.host" showname="Source or Destination Host: 127.0.0.1" hide="yes" size="4" pos="20" show="127.0.0.1" value="7f000001"/>
    <field name="ip.stream" showname="Stream index: 0" size="0" pos="24" show="0"/>
  </proto>
  <proto name="tcp" showname="Transmission Control Protocol, Src Port: 56100, Dst Port: 18123, Seq: 445, Ack: 1262, Len: 0" size="32" pos="24">
    <field name="tcp.srcport" showname="Source Port: 56100" size="2" pos="24" show="56100" value="db24"/>
    <field name="tcp.dstport" showname="Destination Port: 18123" size="2" pos="26" show="18123" value="46cb"/>
    <field name="tcp.port" showname="Source or Destination Port: 56100" hide="yes" size="2" pos="24" show="56100" value="db24"/>
    <field name="tcp.port" showname="Source or Destination Port: 18123" hide="yes" size="2" pos="26" show="18123" value="46cb"/>
    <field name="tcp.stream" showname="Stream index: 0" size="0" pos="24" show="0"/>
    <field name="tcp.stream.pnum" showname="Stream Packet Number: 9" size="0" pos="24" show="9"/>
    <field name="tcp.completeness" showname="Conversation completeness: Incomplete, DATA (15)" size="0" pos="24" show="15">
      <field name="tcp.completeness.rst" showname="..0. .... = RST: Absent" size="0" pos="0" show="False"/>
      <field name="tcp.completeness.fin" showname="...0 .... = FIN: Absent" size="0" pos="0" show="False"/>
      <field name="tcp.completeness.data" showname=".... 1... = Data: Present" size="0" pos="0" show="True"/>
      <field name="tcp.completeness.ack" showname=".... .1.. = ACK: Present" size="0" pos="0" show="True"/>
      <field name="tcp.completeness.syn-ack" showname=".... ..1. = SYN-ACK: Present" size="0" pos="0" show="True"/>
      <field name="tcp.completeness.syn" showname=".... ...1 = SYN: Present" size="0" pos="0" show="True"/>
      <field name="tcp.completeness.str" showname="Completeness Flags: ··DASS" size="0" pos="24" show="··DASS"/>
    </field>
    <field name="tcp.len" showname="TCP Segment Len: 0" size="0" pos="24" show="0"/>
    <field name="tcp.seq" showname="Sequence Number: 445    (relative sequence number)" size="4" pos="28" show="445" value="032b0a57"/>
    <field name="tcp.seq_raw" showname="Sequence Number (raw): 53152343" size="4" pos="28" show="53152343" value="032b0a57"/>
    <field name="tcp.nxtseq" showname="Next Sequence Number: 446    (relative sequence number)" size="0" pos="24" show="446"/>
    <field name="tcp.ack" showname="Acknowledgment Number: 1262    (relative ack number)" size="4" pos="32" show="1262" value="87698f34"/>
    <field name="tcp.ack_raw" showname="Acknowledgment number (raw): 2271842100" size="4" pos="32" show="2271842100" value="87698f34"/>
    <field name="tcp.hdr_len" showname="1000 .... = Header Length: 32 bytes (8)" size="1" pos="36" show="32" value="80"/>
    <field name="tcp.flags" showname="Flags: 0x011 (FIN, ACK)" size="2" pos="36" show="0x0011" value="11" unmaskedvalue="8011">
      <field name="tcp.flags.res" showname="000. .... .... = Reserved: Not set" size="1" pos="36" show="False" value="0" unmaskedvalue="80"/>
      <field name="tcp.flags.ae" showname="...0 .... .... = Accurate ECN: Not set" size="1" pos="36" show="False" value="0" unmaskedvalue="80"/>
      <field name="tcp.flags.cwr" showname=".... 0... .... = Congestion Window Reduced: Not set" size="1" pos="37" show="False" value="0" unmaskedvalue="11"/>
      <field name="tcp.flags.ece" showname=".... .0.. .... = ECN-Echo: Not set" size="1" pos="37" show="False" value="0" unmaskedvalue="11"/>
      <field name="tcp.flags.urg" showname=".... ..0. .... = Urgent: Not set" size="1" pos="37" show="False" value="0" unmaskedvalue="11"/>
      <field name="tcp.flags.ack" showname=".... ...1 .... = Acknowledgment: Set" size="1" pos="37" show="True" value="1" unmaskedvalue="11"/>
      <field name="tcp.flags.push" showname=".... .... 0... = Push: Not set" size="1" pos="37" show="False" value="0" unmaskedvalue="11"/>
      <field name="tcp.flags.reset" showname=".... .... .0.. = Reset: Not set" size="1" pos="37" show="False" value="0" unmaskedvalue="11"/>
      <field name="tcp.flags.syn" showname=".... .... ..0. = Syn: Not set" size="1" pos="37" show="False" value="0" unmaskedvalue="11"/>
      <field name="tcp.flags.fin" showname=".... .... ...1 = Fin: Set" size="1" pos="37" show="True" value="1" unmaskedvalue="11">
        <field name="_ws.expert" showname="Expert Info (Chat/Sequence): Connection finish (FIN)" size="0" pos="37">
          <field name="tcp.connection.fin" showname="Connection finish (FIN)" size="0" pos="0" show="" value=""/>
          <field name="_ws.expert.message" showname="Message: Connection finish (FIN)" hide="yes" size="0" pos="0" show="Connection finish (FIN)"/>
          <field name="_ws.expert.severity" showname="Severity level: Chat" size="0" pos="0" show="2097152"/>
          <field name="_ws.expert.group" showname="Group: Sequence" size="0" pos="0" show="33554432"/>
        </field>
      </field>
      <field name="tcp.flags.str" showname="TCP Flags: ·······A···F" size="2" pos="36" show="·······A···F" value="8011">
        <field name="_ws.expert" showname="Expert Info (Note/Sequence): This frame initiates the connection closing" size="0" pos="36">
          <field name="tcp.connection.fin_active" showname="This frame initiates the connection closing" size="0" pos="0" show="" value=""/>
          <field name="_ws.expert.message" showname="Message: This frame initiates the connection closing" hide="yes" size="0" pos="0" show="This frame initiates the connection closing"/>
          <field name="_ws.expert.severity" showname="Severity level: Note" size="0" pos="0" show="4194304"/>
          <field name="_ws.expert.group" showname="Group: Sequence" size="0" pos="0" show="33554432"/>
        </field>
      </field>
    </field>
    <field name="tcp.window_size_value" showname="Window: 6361" size="2" pos="38" show="6361" value="18d9"/>
    <field name="tcp.window_size" showname="Calculated window size: 407104" size="2" pos="38" show="407104" value="18d9"/>
    <field name="tcp.window_size_scalefactor" showname="Window size scaling factor: 64" size="2" pos="38" show="64" value="18d9"/>
    <field name="tcp.checksum" showname="Checksum: 0xfe28 [unverified]" size="2" pos="40" show="0xfe28" value="fe28"/>
    <field name="tcp.checksum.status" showname="Checksum Status: Unverified" size="0" pos="40" show="2"/>
    <field name="tcp.urgent_pointer" showname="Urgent Pointer: 0" size="2" pos="42" show="0" value="0000"/>
    <field name="tcp.options" showname="Options: (12 bytes), No-Operation (NOP), No-Operation (NOP), Timestamps" size="12" pos="44" show="01:01:08:0a:f6:cf:64:35:23:e9:ab:16" value="0101080af6cf643523e9ab16">
      <field name="tcp.options.nop" showname="TCP Option - No-Operation (NOP)" size="1" pos="44" show="01" value="01">
        <field name="tcp.option_kind" showname="Kind: No-Operation (1)" size="1" pos="44" show="1" value="01"/>
      </field>
      <field name="tcp.options.nop" showname="TCP Option - No-Operation (NOP)" size="1" pos="45" show="01" value="01">
        <field name="tcp.option_kind" showname="Kind: No-Operation (1)" size="1" pos="45" show="1" value="01"/>
      </field>
      <field name="tcp.options.timestamp" showname="TCP Option - Timestamps: TSval 4140786741, TSecr 602516246" size="10" pos="46" show="08:0a:f6:cf:64:35:23:e9:ab:16" value="080af6cf643523e9ab16">
        <field name="tcp.option_kind" showname="Kind: Time Stamp Option (8)" size="1" pos="46" show="8" value="08"/>
        <field name="tcp.option_len" showname="Length: 10" size="1" pos="47" show="10" value="0a"/>
        <field name="tcp.options.timestamp.tsval" showname="Timestamp value: 4140786741" size="4" pos="48" show="4140786741" value="f6cf6435"/>
        <field name="tcp.options.timestamp.tsecr" showname="Timestamp echo reply: 602516246" size="4" pos="52" show="602516246" value="23e9ab16"/>
      </field>
    </field>
    <field name="" show="Timestamps" size="0" pos="24">
      <field name="tcp.time_relative" showname="Time since first frame in this TCP stream: 8.847000 milliseconds" size="0" pos="24" show="0.008847000"/>
      <field name="tcp.time_delta" showname="Time since previous frame in this TCP stream: 3.976000 milliseconds" size="0" pos="24" show="0.003976000"/>
    </field>
    <field name="tcp.stream.client.contiguity_count" showname="Client Contiguous Streams: 1" size="0" pos="24" show="1"/>
    <field name="tcp.stream.server.contiguity_count" showname="Server Contiguous Streams: 1" size="0" pos="24" show="1"/>
  </proto>
</packet>


<packet>
  <proto name="geninfo" pos="0" showname="General information" size="56">
    <field name="num" pos="0" show="10" showname="Number" value="a" size="56"/>
    <field name="len" pos="0" show="56" showname="Frame Length" value="38" size="56"/>
    <field name="caplen" pos="0" show="56" showname="Captured Length" value="38" size="56"/>
    <field name="timestamp" pos="0" show="Sep 14, 2026 06:56:27.372663000 MSK" showname="Captured Time" value="1789358187.372663000" size="56"/>
  </proto>
  <proto name="frame" showname="Frame 10: Packet, 56 bytes on wire (448 bits), 56 bytes captured (448 bits) on interface lo0, id 0" size="56" pos="0">
    <field name="frame.section_number" showname="Section number: 1" size="0" pos="0" show="1"/>
    <field name="frame.interface_id" showname="Interface id: 0 (lo0)" size="0" pos="0" show="0">
      <field name="frame.interface_name" showname="Interface name: lo0" size="0" pos="0" show="lo0"/>
      <field name="frame.interface_description" showname="Interface description: Loopback" size="0" pos="0" show="Loopback"/>
    </field>
    <field name="frame.encap_type" showname="Encapsulation type: NULL/Loopback (15)" size="0" pos="0" show="15"/>
    <field name="frame.time" showname="Arrival Time: Sep 14, 2026 06:56:27.372663000 MSK" size="0" pos="0" show="2026-09-14T06:56:27.372663000+0300"/>
    <field name="frame.time_utc" showname="UTC Arrival Time: Sep 14, 2026 03:56:27.372663000 UTC" size="0" pos="0" show="2026-09-14T03:56:27.372663000Z"/>
    <field name="frame.time_epoch" showname="Epoch Arrival Time: 1789358187.372663000" size="0" pos="0" show="1789358187.372663000"/>
    <field name="frame.offset_shift" showname="Time shift for this packet: 0.000000000 seconds" size="0" pos="0" show="0.000000000"/>
    <field name="frame.time_delta" showname="Time delta from previous captured frame: 76.000 microseconds" size="0" pos="0" show="0.000076000"/>
    <field name="frame.time_delta_displayed" showname="Time delta from previous displayed frame: 76.000 microseconds" size="0" pos="0" show="0.000076000"/>
    <field name="frame.time_relative" showname="Time since reference or first frame: 8.923000 milliseconds" size="0" pos="0" show="0.008923000"/>
    <field name="frame.number" showname="Frame Number: 10" size="0" pos="0" show="10"/>
    <field name="frame.len" showname="Frame Length: 56 bytes (448 bits)" size="0" pos="0" show="56"/>
    <field name="frame.cap_len" showname="Capture Length: 56 bytes (448 bits)" size="0" pos="0" show="56"/>
    <field name="frame.marked" showname="Frame is marked: False" size="0" pos="0" show="False"/>
    <field name="frame.ignored" showname="Frame is ignored: False" size="0" pos="0" show="False"/>
    <field name="frame.protocols" showname="Protocols in frame: null:ip:tcp" size="0" pos="0" show="null:ip:tcp"/>
    <field name="frame.encoding" showname="Character encoding: ASCII (0)" size="0" pos="0" show="0"/>
  </proto>
  <proto name="null" showname="Null/Loopback" size="4" pos="0">
    <field name="null.family" showname="Family: IP (2)" size="4" pos="0" show="2" value="02000000"/>
  </proto>
  <proto name="ip" showname="Internet Protocol Version 4, Src: 127.0.0.1, Dst: 127.0.0.1" size="20" pos="4">
    <field name="ip.version" showname="0100 .... = Version: 4" size="1" pos="4" show="4" value="45"/>
    <field name="ip.hdr_len" showname=".... 0101 = Header Length: 20 bytes (5)" size="1" pos="4" show="20" value="45"/>
    <field name="ip.dsfield" showname="Differentiated Services Field: 0x00 (DSCP: CS0, ECN: Not-ECT)" size="1" pos="5" show="0x00" value="00">
      <field name="ip.dsfield.dscp" showname="0000 00.. = Differentiated Services Codepoint: Default (0)" size="1" pos="5" show="0" value="0" unmaskedvalue="00"/>
      <field name="ip.dsfield.ecn" showname=".... ..00 = Explicit Congestion Notification: Not ECN-Capable Transport (0)" size="1" pos="5" show="0" value="0" unmaskedvalue="00"/>
    </field>
    <field name="ip.len" showname="Total Length: 52" size="2" pos="6" show="52" value="0034"/>
    <field name="ip.id" showname="Identification: 0x0000 (0)" size="2" pos="8" show="0x0000" value="0000"/>
    <field name="ip.flags" showname="010. .... = Flags: 0x2, Don&#x27;t fragment" size="1" pos="10" show="0x02" value="2" unmaskedvalue="40">
      <field name="ip.flags.rb" showname="0... .... = Reserved bit: Not set" size="1" pos="10" show="False" value="0" unmaskedvalue="40"/>
      <field name="ip.flags.df" showname=".1.. .... = Don&#x27;t fragment: Set" size="1" pos="10" show="True" value="1" unmaskedvalue="40"/>
      <field name="ip.flags.mf" showname="..0. .... = More fragments: Not set" size="1" pos="10" show="False" value="0" unmaskedvalue="40"/>
    </field>
    <field name="ip.frag_offset" showname="...0 0000 0000 0000 = Fragment Offset: 0" size="2" pos="10" show="0" value="0" unmaskedvalue="4000"/>
    <field name="ip.ttl" showname="Time to Live: 64" size="1" pos="12" show="64" value="40"/>
    <field name="ip.proto" showname="Protocol: TCP (6)" size="1" pos="13" show="6" value="06"/>
    <field name="ip.checksum" showname="Header Checksum: 0x0000 [validation disabled]" size="2" pos="14" show="0x0000" value="0000"/>
    <field name="ip.checksum.status" showname="Header checksum status: Unverified" size="0" pos="14" show="2"/>
    <field name="ip.src" showname="Source Address: 127.0.0.1" size="4" pos="16" show="127.0.0.1" value="7f000001"/>
    <field name="ip.addr" showname="Source or Destination Address: 127.0.0.1" hide="yes" size="4" pos="16" show="127.0.0.1" value="7f000001"/>
    <field name="ip.src_host" showname="Source Host: 127.0.0.1" hide="yes" size="4" pos="16" show="127.0.0.1" value="7f000001"/>
    <field name="ip.host" showname="Source or Destination Host: 127.0.0.1" hide="yes" size="4" pos="16" show="127.0.0.1" value="7f000001"/>
    <field name="ip.dst" showname="Destination Address: 127.0.0.1" size="4" pos="20" show="127.0.0.1" value="7f000001"/>
    <field name="ip.addr" showname="Source or Destination Address: 127.0.0.1" hide="yes" size="4" pos="20" show="127.0.0.1" value="7f000001"/>
    <field name="ip.dst_host" showname="Destination Host: 127.0.0.1" hide="yes" size="4" pos="20" show="127.0.0.1" value="7f000001"/>
    <field name="ip.host" showname="Source or Destination Host: 127.0.0.1" hide="yes" size="4" pos="20" show="127.0.0.1" value="7f000001"/>
    <field name="ip.stream" showname="Stream index: 0" size="0" pos="24" show="0"/>
  </proto>
  <proto name="tcp" showname="Transmission Control Protocol, Src Port: 18123, Dst Port: 56100, Seq: 1262, Ack: 446, Len: 0" size="32" pos="24">
    <field name="tcp.srcport" showname="Source Port: 18123" size="2" pos="24" show="18123" value="46cb"/>
    <field name="tcp.dstport" showname="Destination Port: 56100" size="2" pos="26" show="56100" value="db24"/>
    <field name="tcp.port" showname="Source or Destination Port: 18123" hide="yes" size="2" pos="24" show="18123" value="46cb"/>
    <field name="tcp.port" showname="Source or Destination Port: 56100" hide="yes" size="2" pos="26" show="56100" value="db24"/>
    <field name="tcp.stream" showname="Stream index: 0" size="0" pos="24" show="0"/>
    <field name="tcp.stream.pnum" showname="Stream Packet Number: 10" size="0" pos="24" show="10"/>
    <field name="tcp.completeness" showname="Conversation completeness: Complete, WITH_DATA (31)" size="0" pos="24" show="31">
      <field name="tcp.completeness.rst" showname="..0. .... = RST: Absent" size="0" pos="0" show="False"/>
      <field name="tcp.completeness.fin" showname="...1 .... = FIN: Present" size="0" pos="0" show="True"/>
      <field name="tcp.completeness.data" showname=".... 1... = Data: Present" size="0" pos="0" show="True"/>
      <field name="tcp.completeness.ack" showname=".... .1.. = ACK: Present" size="0" pos="0" show="True"/>
      <field name="tcp.completeness.syn-ack" showname=".... ..1. = SYN-ACK: Present" size="0" pos="0" show="True"/>
      <field name="tcp.completeness.syn" showname=".... ...1 = SYN: Present" size="0" pos="0" show="True"/>
      <field name="tcp.completeness.str" showname="Completeness Flags: ·FDASS" size="0" pos="24" show="·FDASS"/>
    </field>
    <field name="tcp.len" showname="TCP Segment Len: 0" size="0" pos="24" show="0"/>
    <field name="tcp.seq" showname="Sequence Number: 1262    (relative sequence number)" size="4" pos="28" show="1262" value="87698f34"/>
    <field name="tcp.seq_raw" showname="Sequence Number (raw): 2271842100" size="4" pos="28" show="2271842100" value="87698f34"/>
    <field name="tcp.nxtseq" showname="Next Sequence Number: 1262    (relative sequence number)" size="0" pos="24" show="1262"/>
    <field name="tcp.ack" showname="Acknowledgment Number: 446    (relative ack number)" size="4" pos="32" show="446" value="032b0a58"/>
    <field name="tcp.ack_raw" showname="Acknowledgment number (raw): 53152344" size="4" pos="32" show="53152344" value="032b0a58"/>
    <field name="tcp.hdr_len" showname="1000 .... = Header Length: 32 bytes (8)" size="1" pos="36" show="32" value="80"/>
    <field name="tcp.flags" showname="Flags: 0x010 (ACK)" size="2" pos="36" show="0x0010" value="10" unmaskedvalue="8010">
      <field name="tcp.flags.res" showname="000. .... .... = Reserved: Not set" size="1" pos="36" show="False" value="0" unmaskedvalue="80"/>
      <field name="tcp.flags.ae" showname="...0 .... .... = Accurate ECN: Not set" size="1" pos="36" show="False" value="0" unmaskedvalue="80"/>
      <field name="tcp.flags.cwr" showname=".... 0... .... = Congestion Window Reduced: Not set" size="1" pos="37" show="False" value="0" unmaskedvalue="10"/>
      <field name="tcp.flags.ece" showname=".... .0.. .... = ECN-Echo: Not set" size="1" pos="37" show="False" value="0" unmaskedvalue="10"/>
      <field name="tcp.flags.urg" showname=".... ..0. .... = Urgent: Not set" size="1" pos="37" show="False" value="0" unmaskedvalue="10"/>
      <field name="tcp.flags.ack" showname=".... ...1 .... = Acknowledgment: Set" size="1" pos="37" show="True" value="1" unmaskedvalue="10"/>
      <field name="tcp.flags.push" showname=".... .... 0... = Push: Not set" size="1" pos="37" show="False" value="0" unmaskedvalue="10"/>
      <field name="tcp.flags.reset" showname=".... .... .0.. = Reset: Not set" size="1" pos="37" show="False" value="0" unmaskedvalue="10"/>
      <field name="tcp.flags.syn" showname=".... .... ..0. = Syn: Not set" size="1" pos="37" show="False" value="0" unmaskedvalue="10"/>
      <field name="tcp.flags.fin" showname=".... .... ...0 = Fin: Not set" size="1" pos="37" show="False" value="0" unmaskedvalue="10"/>
      <field name="tcp.flags.str" showname="TCP Flags: ·······A····" size="2" pos="36" show="·······A····" value="8010"/>
    </field>
    <field name="tcp.window_size_value" showname="Window: 6374" size="2" pos="38" show="6374" value="18e6"/>
    <field name="tcp.window_size" showname="Calculated window size: 407936" size="2" pos="38" show="407936" value="18e6"/>
    <field name="tcp.window_size_scalefactor" showname="Window size scaling factor: 64" size="2" pos="38" show="64" value="18e6"/>
    <field name="tcp.checksum" showname="Checksum: 0xfe28 [unverified]" size="2" pos="40" show="0xfe28" value="fe28"/>
    <field name="tcp.checksum.status" showname="Checksum Status: Unverified" size="0" pos="40" show="2"/>
    <field name="tcp.urgent_pointer" showname="Urgent Pointer: 0" size="2" pos="42" show="0" value="0000"/>
    <field name="tcp.options" showname="Options: (12 bytes), No-Operation (NOP), No-Operation (NOP), Timestamps" size="12" pos="44" show="01:01:08:0a:23:e9:ab:1a:f6:cf:64:35" value="0101080a23e9ab1af6cf6435">
      <field name="tcp.options.nop" showname="TCP Option - No-Operation (NOP)" size="1" pos="44" show="01" value="01">
        <field name="tcp.option_kind" showname="Kind: No-Operation (1)" size="1" pos="44" show="1" value="01"/>
      </field>
      <field name="tcp.options.nop" showname="TCP Option - No-Operation (NOP)" size="1" pos="45" show="01" value="01">
        <field name="tcp.option_kind" showname="Kind: No-Operation (1)" size="1" pos="45" show="1" value="01"/>
      </field>
      <field name="tcp.options.timestamp" showname="TCP Option - Timestamps: TSval 602516250, TSecr 4140786741" size="10" pos="46" show="08:0a:23:e9:ab:1a:f6:cf:64:35" value="080a23e9ab1af6cf6435">
        <field name="tcp.option_kind" showname="Kind: Time Stamp Option (8)" size="1" pos="46" show="8" value="08"/>
        <field name="tcp.option_len" showname="Length: 10" size="1" pos="47" show="10" value="0a"/>
        <field name="tcp.options.timestamp.tsval" showname="Timestamp value: 602516250" size="4" pos="48" show="602516250" value="23e9ab1a"/>
        <field name="tcp.options.timestamp.tsecr" showname="Timestamp echo reply: 4140786741" size="4" pos="52" show="4140786741" value="f6cf6435"/>
      </field>
    </field>
    <field name="" show="Timestamps" size="0" pos="24">
      <field name="tcp.time_relative" showname="Time since first frame in this TCP stream: 8.923000 milliseconds" size="0" pos="24" show="0.008923000"/>
      <field name="tcp.time_delta" showname="Time since previous frame in this TCP stream: 76.000 microseconds" size="0" pos="24" show="0.000076000"/>
    </field>
    <field name="tcp.analysis" showname="SEQ/ACK analysis" size="0" pos="24" show="" value="">
      <field name="tcp.analysis.acks_frame" showname="This is an ACK to the segment in frame: 9" size="0" pos="24" show="9"/>
      <field name="tcp.analysis.ack_rtt" showname="The RTT to ACK the segment was: 76.000 microseconds" size="0" pos="24" show="0.000076000"/>
      <field name="tcp.analysis.initial_rtt" showname="iRTT: 120.000 microseconds" size="0" pos="24" show="0.000120000"/>
    </field>
    <field name="tcp.stream.client.contiguity_count" showname="Client Contiguous Streams: 1" size="0" pos="24" show="1"/>
    <field name="tcp.stream.server.contiguity_count" showname="Server Contiguous Streams: 1" size="0" pos="24" show="1"/>
  </proto>
</packet>


<packet>
  <proto name="geninfo" pos="0" showname="General information" size="56">
    <field name="num" pos="0" show="11" showname="Number" value="b" size="56"/>
    <field name="len" pos="0" show="56" showname="Frame Length" value="38" size="56"/>
    <field name="caplen" pos="0" show="56" showname="Captured Length" value="38" size="56"/>
    <field name="timestamp" pos="0" show="Sep 14, 2026 06:56:27.373675000 MSK" showname="Captured Time" value="1789358187.373675000" size="56"/>
  </proto>
  <proto name="frame" showname="Frame 11: Packet, 56 bytes on wire (448 bits), 56 bytes captured (448 bits) on interface lo0, id 0" size="56" pos="0">
    <field name="frame.section_number" showname="Section number: 1" size="0" pos="0" show="1"/>
    <field name="frame.interface_id" showname="Interface id: 0 (lo0)" size="0" pos="0" show="0">
      <field name="frame.interface_name" showname="Interface name: lo0" size="0" pos="0" show="lo0"/>
      <field name="frame.interface_description" showname="Interface description: Loopback" size="0" pos="0" show="Loopback"/>
    </field>
    <field name="frame.encap_type" showname="Encapsulation type: NULL/Loopback (15)" size="0" pos="0" show="15"/>
    <field name="frame.time" showname="Arrival Time: Sep 14, 2026 06:56:27.373675000 MSK" size="0" pos="0" show="2026-09-14T06:56:27.373675000+0300"/>
    <field name="frame.time_utc" showname="UTC Arrival Time: Sep 14, 2026 03:56:27.373675000 UTC" size="0" pos="0" show="2026-09-14T03:56:27.373675000Z"/>
    <field name="frame.time_epoch" showname="Epoch Arrival Time: 1789358187.373675000" size="0" pos="0" show="1789358187.373675000"/>
    <field name="frame.offset_shift" showname="Time shift for this packet: 0.000000000 seconds" size="0" pos="0" show="0.000000000"/>
    <field name="frame.time_delta" showname="Time delta from previous captured frame: 1.012000 milliseconds" size="0" pos="0" show="0.001012000"/>
    <field name="frame.time_delta_displayed" showname="Time delta from previous displayed frame: 1.012000 milliseconds" size="0" pos="0" show="0.001012000"/>
    <field name="frame.time_relative" showname="Time since reference or first frame: 9.935000 milliseconds" size="0" pos="0" show="0.009935000"/>
    <field name="frame.number" showname="Frame Number: 11" size="0" pos="0" show="11"/>
    <field name="frame.len" showname="Frame Length: 56 bytes (448 bits)" size="0" pos="0" show="56"/>
    <field name="frame.cap_len" showname="Capture Length: 56 bytes (448 bits)" size="0" pos="0" show="56"/>
    <field name="frame.marked" showname="Frame is marked: False" size="0" pos="0" show="False"/>
    <field name="frame.ignored" showname="Frame is ignored: False" size="0" pos="0" show="False"/>
    <field name="frame.protocols" showname="Protocols in frame: null:ip:tcp" size="0" pos="0" show="null:ip:tcp"/>
    <field name="frame.encoding" showname="Character encoding: ASCII (0)" size="0" pos="0" show="0"/>
  </proto>
  <proto name="null" showname="Null/Loopback" size="4" pos="0">
    <field name="null.family" showname="Family: IP (2)" size="4" pos="0" show="2" value="02000000"/>
  </proto>
  <proto name="ip" showname="Internet Protocol Version 4, Src: 127.0.0.1, Dst: 127.0.0.1" size="20" pos="4">
    <field name="ip.version" showname="0100 .... = Version: 4" size="1" pos="4" show="4" value="45"/>
    <field name="ip.hdr_len" showname=".... 0101 = Header Length: 20 bytes (5)" size="1" pos="4" show="20" value="45"/>
    <field name="ip.dsfield" showname="Differentiated Services Field: 0x00 (DSCP: CS0, ECN: Not-ECT)" size="1" pos="5" show="0x00" value="00">
      <field name="ip.dsfield.dscp" showname="0000 00.. = Differentiated Services Codepoint: Default (0)" size="1" pos="5" show="0" value="0" unmaskedvalue="00"/>
      <field name="ip.dsfield.ecn" showname=".... ..00 = Explicit Congestion Notification: Not ECN-Capable Transport (0)" size="1" pos="5" show="0" value="0" unmaskedvalue="00"/>
    </field>
    <field name="ip.len" showname="Total Length: 52" size="2" pos="6" show="52" value="0034"/>
    <field name="ip.id" showname="Identification: 0x0000 (0)" size="2" pos="8" show="0x0000" value="0000"/>
    <field name="ip.flags" showname="010. .... = Flags: 0x2, Don&#x27;t fragment" size="1" pos="10" show="0x02" value="2" unmaskedvalue="40">
      <field name="ip.flags.rb" showname="0... .... = Reserved bit: Not set" size="1" pos="10" show="False" value="0" unmaskedvalue="40"/>
      <field name="ip.flags.df" showname=".1.. .... = Don&#x27;t fragment: Set" size="1" pos="10" show="True" value="1" unmaskedvalue="40"/>
      <field name="ip.flags.mf" showname="..0. .... = More fragments: Not set" size="1" pos="10" show="False" value="0" unmaskedvalue="40"/>
    </field>
    <field name="ip.frag_offset" showname="...0 0000 0000 0000 = Fragment Offset: 0" size="2" pos="10" show="0" value="0" unmaskedvalue="4000"/>
    <field name="ip.ttl" showname="Time to Live: 64" size="1" pos="12" show="64" value="40"/>
    <field name="ip.proto" showname="Protocol: TCP (6)" size="1" pos="13" show="6" value="06"/>
    <field name="ip.checksum" showname="Header Checksum: 0x0000 [validation disabled]" size="2" pos="14" show="0x0000" value="0000"/>
    <field name="ip.checksum.status" showname="Header checksum status: Unverified" size="0" pos="14" show="2"/>
    <field name="ip.src" showname="Source Address: 127.0.0.1" size="4" pos="16" show="127.0.0.1" value="7f000001"/>
    <field name="ip.addr" showname="Source or Destination Address: 127.0.0.1" hide="yes" size="4" pos="16" show="127.0.0.1" value="7f000001"/>
    <field name="ip.src_host" showname="Source Host: 127.0.0.1" hide="yes" size="4" pos="16" show="127.0.0.1" value="7f000001"/>
    <field name="ip.host" showname="Source or Destination Host: 127.0.0.1" hide="yes" size="4" pos="16" show="127.0.0.1" value="7f000001"/>
    <field name="ip.dst" showname="Destination Address: 127.0.0.1" size="4" pos="20" show="127.0.0.1" value="7f000001"/>
    <field name="ip.addr" showname="Source or Destination Address: 127.0.0.1" hide="yes" size="4" pos="20" show="127.0.0.1" value="7f000001"/>
    <field name="ip.dst_host" showname="Destination Host: 127.0.0.1" hide="yes" size="4" pos="20" show="127.0.0.1" value="7f000001"/>
    <field name="ip.host" showname="Source or Destination Host: 127.0.0.1" hide="yes" size="4" pos="20" show="127.0.0.1" value="7f000001"/>
    <field name="ip.stream" showname="Stream index: 0" size="0" pos="24" show="0"/>
  </proto>
  <proto name="tcp" showname="Transmission Control Protocol, Src Port: 18123, Dst Port: 56100, Seq: 1262, Ack: 446, Len: 0" size="32" pos="24">
    <field name="tcp.srcport" showname="Source Port: 18123" size="2" pos="24" show="18123" value="46cb"/>
    <field name="tcp.dstport" showname="Destination Port: 56100" size="2" pos="26" show="56100" value="db24"/>
    <field name="tcp.port" showname="Source or Destination Port: 18123" hide="yes" size="2" pos="24" show="18123" value="46cb"/>
    <field name="tcp.port" showname="Source or Destination Port: 56100" hide="yes" size="2" pos="26" show="56100" value="db24"/>
    <field name="tcp.stream" showname="Stream index: 0" size="0" pos="24" show="0"/>
    <field name="tcp.stream.pnum" showname="Stream Packet Number: 11" size="0" pos="24" show="11"/>
    <field name="tcp.completeness" showname="Conversation completeness: Complete, WITH_DATA (31)" size="0" pos="24" show="31">
      <field name="tcp.completeness.rst" showname="..0. .... = RST: Absent" size="0" pos="0" show="False"/>
      <field name="tcp.completeness.fin" showname="...1 .... = FIN: Present" size="0" pos="0" show="True"/>
      <field name="tcp.completeness.data" showname=".... 1... = Data: Present" size="0" pos="0" show="True"/>
      <field name="tcp.completeness.ack" showname=".... .1.. = ACK: Present" size="0" pos="0" show="True"/>
      <field name="tcp.completeness.syn-ack" showname=".... ..1. = SYN-ACK: Present" size="0" pos="0" show="True"/>
      <field name="tcp.completeness.syn" showname=".... ...1 = SYN: Present" size="0" pos="0" show="True"/>
      <field name="tcp.completeness.str" showname="Completeness Flags: ·FDASS" size="0" pos="24" show="·FDASS"/>
    </field>
    <field name="tcp.len" showname="TCP Segment Len: 0" size="0" pos="24" show="0"/>
    <field name="tcp.seq" showname="Sequence Number: 1262    (relative sequence number)" size="4" pos="28" show="1262" value="87698f34"/>
    <field name="tcp.seq_raw" showname="Sequence Number (raw): 2271842100" size="4" pos="28" show="2271842100" value="87698f34"/>
    <field name="tcp.nxtseq" showname="Next Sequence Number: 1263    (relative sequence number)" size="0" pos="24" show="1263"/>
    <field name="tcp.ack" showname="Acknowledgment Number: 446    (relative ack number)" size="4" pos="32" show="446" value="032b0a58"/>
    <field name="tcp.ack_raw" showname="Acknowledgment number (raw): 53152344" size="4" pos="32" show="53152344" value="032b0a58"/>
    <field name="tcp.hdr_len" showname="1000 .... = Header Length: 32 bytes (8)" size="1" pos="36" show="32" value="80"/>
    <field name="tcp.flags" showname="Flags: 0x011 (FIN, ACK)" size="2" pos="36" show="0x0011" value="11" unmaskedvalue="8011">
      <field name="tcp.flags.res" showname="000. .... .... = Reserved: Not set" size="1" pos="36" show="False" value="0" unmaskedvalue="80"/>
      <field name="tcp.flags.ae" showname="...0 .... .... = Accurate ECN: Not set" size="1" pos="36" show="False" value="0" unmaskedvalue="80"/>
      <field name="tcp.flags.cwr" showname=".... 0... .... = Congestion Window Reduced: Not set" size="1" pos="37" show="False" value="0" unmaskedvalue="11"/>
      <field name="tcp.flags.ece" showname=".... .0.. .... = ECN-Echo: Not set" size="1" pos="37" show="False" value="0" unmaskedvalue="11"/>
      <field name="tcp.flags.urg" showname=".... ..0. .... = Urgent: Not set" size="1" pos="37" show="False" value="0" unmaskedvalue="11"/>
      <field name="tcp.flags.ack" showname=".... ...1 .... = Acknowledgment: Set" size="1" pos="37" show="True" value="1" unmaskedvalue="11"/>
      <field name="tcp.flags.push" showname=".... .... 0... = Push: Not set" size="1" pos="37" show="False" value="0" unmaskedvalue="11"/>
      <field name="tcp.flags.reset" showname=".... .... .0.. = Reset: Not set" size="1" pos="37" show="False" value="0" unmaskedvalue="11"/>
      <field name="tcp.flags.syn" showname=".... .... ..0. = Syn: Not set" size="1" pos="37" show="False" value="0" unmaskedvalue="11"/>
      <field name="tcp.flags.fin" showname=".... .... ...1 = Fin: Set" size="1" pos="37" show="True" value="1" unmaskedvalue="11">
        <field name="_ws.expert" showname="Expert Info (Chat/Sequence): Connection finish (FIN)" size="0" pos="37">
          <field name="tcp.connection.fin" showname="Connection finish (FIN)" size="0" pos="0" show="" value=""/>
          <field name="_ws.expert.message" showname="Message: Connection finish (FIN)" hide="yes" size="0" pos="0" show="Connection finish (FIN)"/>
          <field name="_ws.expert.severity" showname="Severity level: Chat" size="0" pos="0" show="2097152"/>
          <field name="_ws.expert.group" showname="Group: Sequence" size="0" pos="0" show="33554432"/>
        </field>
      </field>
      <field name="tcp.flags.str" showname="TCP Flags: ·······A···F" size="2" pos="36" show="·······A···F" value="8011">
        <field name="_ws.expert" showname="Expert Info (Note/Sequence): This frame undergoes the connection closing" size="0" pos="36">
          <field name="tcp.connection.fin_passive" showname="This frame undergoes the connection closing" size="0" pos="0" show="" value=""/>
          <field name="_ws.expert.message" showname="Message: This frame undergoes the connection closing" hide="yes" size="0" pos="0" show="This frame undergoes the connection closing"/>
          <field name="_ws.expert.severity" showname="Severity level: Note" size="0" pos="0" show="4194304"/>
          <field name="_ws.expert.group" showname="Group: Sequence" size="0" pos="0" show="33554432"/>
        </field>
      </field>
    </field>
    <field name="tcp.window_size_value" showname="Window: 6374" size="2" pos="38" show="6374" value="18e6"/>
    <field name="tcp.window_size" showname="Calculated window size: 407936" size="2" pos="38" show="407936" value="18e6"/>
    <field name="tcp.window_size_scalefactor" showname="Window size scaling factor: 64" size="2" pos="38" show="64" value="18e6"/>
    <field name="tcp.checksum" showname="Checksum: 0xfe28 [unverified]" size="2" pos="40" show="0xfe28" value="fe28"/>
    <field name="tcp.checksum.status" showname="Checksum Status: Unverified" size="0" pos="40" show="2"/>
    <field name="tcp.urgent_pointer" showname="Urgent Pointer: 0" size="2" pos="42" show="0" value="0000"/>
    <field name="tcp.options" showname="Options: (12 bytes), No-Operation (NOP), No-Operation (NOP), Timestamps" size="12" pos="44" show="01:01:08:0a:23:e9:ab:1b:f6:cf:64:35" value="0101080a23e9ab1bf6cf6435">
      <field name="tcp.options.nop" showname="TCP Option - No-Operation (NOP)" size="1" pos="44" show="01" value="01">
        <field name="tcp.option_kind" showname="Kind: No-Operation (1)" size="1" pos="44" show="1" value="01"/>
      </field>
      <field name="tcp.options.nop" showname="TCP Option - No-Operation (NOP)" size="1" pos="45" show="01" value="01">
        <field name="tcp.option_kind" showname="Kind: No-Operation (1)" size="1" pos="45" show="1" value="01"/>
      </field>
      <field name="tcp.options.timestamp" showname="TCP Option - Timestamps: TSval 602516251, TSecr 4140786741" size="10" pos="46" show="08:0a:23:e9:ab:1b:f6:cf:64:35" value="080a23e9ab1bf6cf6435">
        <field name="tcp.option_kind" showname="Kind: Time Stamp Option (8)" size="1" pos="46" show="8" value="08"/>
        <field name="tcp.option_len" showname="Length: 10" size="1" pos="47" show="10" value="0a"/>
        <field name="tcp.options.timestamp.tsval" showname="Timestamp value: 602516251" size="4" pos="48" show="602516251" value="23e9ab1b"/>
        <field name="tcp.options.timestamp.tsecr" showname="Timestamp echo reply: 4140786741" size="4" pos="52" show="4140786741" value="f6cf6435"/>
      </field>
    </field>
    <field name="" show="Timestamps" size="0" pos="24">
      <field name="tcp.time_relative" showname="Time since first frame in this TCP stream: 9.935000 milliseconds" size="0" pos="24" show="0.009935000"/>
      <field name="tcp.time_delta" showname="Time since previous frame in this TCP stream: 1.012000 milliseconds" size="0" pos="24" show="0.001012000"/>
    </field>
    <field name="tcp.stream.client.contiguity_count" showname="Client Contiguous Streams: 1" size="0" pos="24" show="1"/>
    <field name="tcp.stream.server.contiguity_count" showname="Server Contiguous Streams: 1" size="0" pos="24" show="1"/>
  </proto>
</packet>


<packet>
  <proto name="geninfo" pos="0" showname="General information" size="56">
    <field name="num" pos="0" show="12" showname="Number" value="c" size="56"/>
    <field name="len" pos="0" show="56" showname="Frame Length" value="38" size="56"/>
    <field name="caplen" pos="0" show="56" showname="Captured Length" value="38" size="56"/>
    <field name="timestamp" pos="0" show="Sep 14, 2026 06:56:27.373715000 MSK" showname="Captured Time" value="1789358187.373715000" size="56"/>
  </proto>
  <proto name="frame" showname="Frame 12: Packet, 56 bytes on wire (448 bits), 56 bytes captured (448 bits) on interface lo0, id 0" size="56" pos="0">
    <field name="frame.section_number" showname="Section number: 1" size="0" pos="0" show="1"/>
    <field name="frame.interface_id" showname="Interface id: 0 (lo0)" size="0" pos="0" show="0">
      <field name="frame.interface_name" showname="Interface name: lo0" size="0" pos="0" show="lo0"/>
      <field name="frame.interface_description" showname="Interface description: Loopback" size="0" pos="0" show="Loopback"/>
    </field>
    <field name="frame.encap_type" showname="Encapsulation type: NULL/Loopback (15)" size="0" pos="0" show="15"/>
    <field name="frame.time" showname="Arrival Time: Sep 14, 2026 06:56:27.373715000 MSK" size="0" pos="0" show="2026-09-14T06:56:27.373715000+0300"/>
    <field name="frame.time_utc" showname="UTC Arrival Time: Sep 14, 2026 03:56:27.373715000 UTC" size="0" pos="0" show="2026-09-14T03:56:27.373715000Z"/>
    <field name="frame.time_epoch" showname="Epoch Arrival Time: 1789358187.373715000" size="0" pos="0" show="1789358187.373715000"/>
    <field name="frame.offset_shift" showname="Time shift for this packet: 0.000000000 seconds" size="0" pos="0" show="0.000000000"/>
    <field name="frame.time_delta" showname="Time delta from previous captured frame: 40.000 microseconds" size="0" pos="0" show="0.000040000"/>
    <field name="frame.time_delta_displayed" showname="Time delta from previous displayed frame: 40.000 microseconds" size="0" pos="0" show="0.000040000"/>
    <field name="frame.time_relative" showname="Time since reference or first frame: 9.975000 milliseconds" size="0" pos="0" show="0.009975000"/>
    <field name="frame.number" showname="Frame Number: 12" size="0" pos="0" show="12"/>
    <field name="frame.len" showname="Frame Length: 56 bytes (448 bits)" size="0" pos="0" show="56"/>
    <field name="frame.cap_len" showname="Capture Length: 56 bytes (448 bits)" size="0" pos="0" show="56"/>
    <field name="frame.marked" showname="Frame is marked: False" size="0" pos="0" show="False"/>
    <field name="frame.ignored" showname="Frame is ignored: False" size="0" pos="0" show="False"/>
    <field name="frame.protocols" showname="Protocols in frame: null:ip:tcp" size="0" pos="0" show="null:ip:tcp"/>
    <field name="frame.encoding" showname="Character encoding: ASCII (0)" size="0" pos="0" show="0"/>
  </proto>
  <proto name="null" showname="Null/Loopback" size="4" pos="0">
    <field name="null.family" showname="Family: IP (2)" size="4" pos="0" show="2" value="02000000"/>
  </proto>
  <proto name="ip" showname="Internet Protocol Version 4, Src: 127.0.0.1, Dst: 127.0.0.1" size="20" pos="4">
    <field name="ip.version" showname="0100 .... = Version: 4" size="1" pos="4" show="4" value="45"/>
    <field name="ip.hdr_len" showname=".... 0101 = Header Length: 20 bytes (5)" size="1" pos="4" show="20" value="45"/>
    <field name="ip.dsfield" showname="Differentiated Services Field: 0x00 (DSCP: CS0, ECN: Not-ECT)" size="1" pos="5" show="0x00" value="00">
      <field name="ip.dsfield.dscp" showname="0000 00.. = Differentiated Services Codepoint: Default (0)" size="1" pos="5" show="0" value="0" unmaskedvalue="00"/>
      <field name="ip.dsfield.ecn" showname=".... ..00 = Explicit Congestion Notification: Not ECN-Capable Transport (0)" size="1" pos="5" show="0" value="0" unmaskedvalue="00"/>
    </field>
    <field name="ip.len" showname="Total Length: 52" size="2" pos="6" show="52" value="0034"/>
    <field name="ip.id" showname="Identification: 0x0000 (0)" size="2" pos="8" show="0x0000" value="0000"/>
    <field name="ip.flags" showname="010. .... = Flags: 0x2, Don&#x27;t fragment" size="1" pos="10" show="0x02" value="2" unmaskedvalue="40">
      <field name="ip.flags.rb" showname="0... .... = Reserved bit: Not set" size="1" pos="10" show="False" value="0" unmaskedvalue="40"/>
      <field name="ip.flags.df" showname=".1.. .... = Don&#x27;t fragment: Set" size="1" pos="10" show="True" value="1" unmaskedvalue="40"/>
      <field name="ip.flags.mf" showname="..0. .... = More fragments: Not set" size="1" pos="10" show="False" value="0" unmaskedvalue="40"/>
    </field>
    <field name="ip.frag_offset" showname="...0 0000 0000 0000 = Fragment Offset: 0" size="2" pos="10" show="0" value="0" unmaskedvalue="4000"/>
    <field name="ip.ttl" showname="Time to Live: 64" size="1" pos="12" show="64" value="40"/>
    <field name="ip.proto" showname="Protocol: TCP (6)" size="1" pos="13" show="6" value="06"/>
    <field name="ip.checksum" showname="Header Checksum: 0x0000 [validation disabled]" size="2" pos="14" show="0x0000" value="0000"/>
    <field name="ip.checksum.status" showname="Header checksum status: Unverified" size="0" pos="14" show="2"/>
    <field name="ip.src" showname="Source Address: 127.0.0.1" size="4" pos="16" show="127.0.0.1" value="7f000001"/>
    <field name="ip.addr" showname="Source or Destination Address: 127.0.0.1" hide="yes" size="4" pos="16" show="127.0.0.1" value="7f000001"/>
    <field name="ip.src_host" showname="Source Host: 127.0.0.1" hide="yes" size="4" pos="16" show="127.0.0.1" value="7f000001"/>
    <field name="ip.host" showname="Source or Destination Host: 127.0.0.1" hide="yes" size="4" pos="16" show="127.0.0.1" value="7f000001"/>
    <field name="ip.dst" showname="Destination Address: 127.0.0.1" size="4" pos="20" show="127.0.0.1" value="7f000001"/>
    <field name="ip.addr" showname="Source or Destination Address: 127.0.0.1" hide="yes" size="4" pos="20" show="127.0.0.1" value="7f000001"/>
    <field name="ip.dst_host" showname="Destination Host: 127.0.0.1" hide="yes" size="4" pos="20" show="127.0.0.1" value="7f000001"/>
    <field name="ip.host" showname="Source or Destination Host: 127.0.0.1" hide="yes" size="4" pos="20" show="127.0.0.1" value="7f000001"/>
    <field name="ip.stream" showname="Stream index: 0" size="0" pos="24" show="0"/>
  </proto>
  <proto name="tcp" showname="Transmission Control Protocol, Src Port: 56100, Dst Port: 18123, Seq: 446, Ack: 1263, Len: 0" size="32" pos="24">
    <field name="tcp.srcport" showname="Source Port: 56100" size="2" pos="24" show="56100" value="db24"/>
    <field name="tcp.dstport" showname="Destination Port: 18123" size="2" pos="26" show="18123" value="46cb"/>
    <field name="tcp.port" showname="Source or Destination Port: 56100" hide="yes" size="2" pos="24" show="56100" value="db24"/>
    <field name="tcp.port" showname="Source or Destination Port: 18123" hide="yes" size="2" pos="26" show="18123" value="46cb"/>
    <field name="tcp.stream" showname="Stream index: 0" size="0" pos="24" show="0"/>
    <field name="tcp.stream.pnum" showname="Stream Packet Number: 12" size="0" pos="24" show="12"/>
    <field name="tcp.completeness" showname="Conversation completeness: Complete, WITH_DATA (31)" size="0" pos="24" show="31">
      <field name="tcp.completeness.rst" showname="..0. .... = RST: Absent" size="0" pos="0" show="False"/>
      <field name="tcp.completeness.fin" showname="...1 .... = FIN: Present" size="0" pos="0" show="True"/>
      <field name="tcp.completeness.data" showname=".... 1... = Data: Present" size="0" pos="0" show="True"/>
      <field name="tcp.completeness.ack" showname=".... .1.. = ACK: Present" size="0" pos="0" show="True"/>
      <field name="tcp.completeness.syn-ack" showname=".... ..1. = SYN-ACK: Present" size="0" pos="0" show="True"/>
      <field name="tcp.completeness.syn" showname=".... ...1 = SYN: Present" size="0" pos="0" show="True"/>
      <field name="tcp.completeness.str" showname="Completeness Flags: ·FDASS" size="0" pos="24" show="·FDASS"/>
    </field>
    <field name="tcp.len" showname="TCP Segment Len: 0" size="0" pos="24" show="0"/>
    <field name="tcp.seq" showname="Sequence Number: 446    (relative sequence number)" size="4" pos="28" show="446" value="032b0a58"/>
    <field name="tcp.seq_raw" showname="Sequence Number (raw): 53152344" size="4" pos="28" show="53152344" value="032b0a58"/>
    <field name="tcp.nxtseq" showname="Next Sequence Number: 446    (relative sequence number)" size="0" pos="24" show="446"/>
    <field name="tcp.ack" showname="Acknowledgment Number: 1263    (relative ack number)" size="4" pos="32" show="1263" value="87698f35"/>
    <field name="tcp.ack_raw" showname="Acknowledgment number (raw): 2271842101" size="4" pos="32" show="2271842101" value="87698f35"/>
    <field name="tcp.hdr_len" showname="1000 .... = Header Length: 32 bytes (8)" size="1" pos="36" show="32" value="80"/>
    <field name="tcp.flags" showname="Flags: 0x010 (ACK)" size="2" pos="36" show="0x0010" value="10" unmaskedvalue="8010">
      <field name="tcp.flags.res" showname="000. .... .... = Reserved: Not set" size="1" pos="36" show="False" value="0" unmaskedvalue="80"/>
      <field name="tcp.flags.ae" showname="...0 .... .... = Accurate ECN: Not set" size="1" pos="36" show="False" value="0" unmaskedvalue="80"/>
      <field name="tcp.flags.cwr" showname=".... 0... .... = Congestion Window Reduced: Not set" size="1" pos="37" show="False" value="0" unmaskedvalue="10"/>
      <field name="tcp.flags.ece" showname=".... .0.. .... = ECN-Echo: Not set" size="1" pos="37" show="False" value="0" unmaskedvalue="10"/>
      <field name="tcp.flags.urg" showname=".... ..0. .... = Urgent: Not set" size="1" pos="37" show="False" value="0" unmaskedvalue="10"/>
      <field name="tcp.flags.ack" showname=".... ...1 .... = Acknowledgment: Set" size="1" pos="37" show="True" value="1" unmaskedvalue="10"/>
      <field name="tcp.flags.push" showname=".... .... 0... = Push: Not set" size="1" pos="37" show="False" value="0" unmaskedvalue="10"/>
      <field name="tcp.flags.reset" showname=".... .... .0.. = Reset: Not set" size="1" pos="37" show="False" value="0" unmaskedvalue="10"/>
      <field name="tcp.flags.syn" showname=".... .... ..0. = Syn: Not set" size="1" pos="37" show="False" value="0" unmaskedvalue="10"/>
      <field name="tcp.flags.fin" showname=".... .... ...0 = Fin: Not set" size="1" pos="37" show="False" value="0" unmaskedvalue="10"/>
      <field name="tcp.flags.str" showname="TCP Flags: ·······A····" size="2" pos="36" show="·······A····" value="8010"/>
    </field>
    <field name="tcp.window_size_value" showname="Window: 6361" size="2" pos="38" show="6361" value="18d9"/>
    <field name="tcp.window_size" showname="Calculated window size: 407104" size="2" pos="38" show="407104" value="18d9"/>
    <field name="tcp.window_size_scalefactor" showname="Window size scaling factor: 64" size="2" pos="38" show="64" value="18d9"/>
    <field name="tcp.checksum" showname="Checksum: 0xfe28 [unverified]" size="2" pos="40" show="0xfe28" value="fe28"/>
    <field name="tcp.checksum.status" showname="Checksum Status: Unverified" size="0" pos="40" show="2"/>
    <field name="tcp.urgent_pointer" showname="Urgent Pointer: 0" size="2" pos="42" show="0" value="0000"/>
    <field name="tcp.options" showname="Options: (12 bytes), No-Operation (NOP), No-Operation (NOP), Timestamps" size="12" pos="44" show="01:01:08:0a:f6:cf:64:36:23:e9:ab:1b" value="0101080af6cf643623e9ab1b">
      <field name="tcp.options.nop" showname="TCP Option - No-Operation (NOP)" size="1" pos="44" show="01" value="01">
        <field name="tcp.option_kind" showname="Kind: No-Operation (1)" size="1" pos="44" show="1" value="01"/>
      </field>
      <field name="tcp.options.nop" showname="TCP Option - No-Operation (NOP)" size="1" pos="45" show="01" value="01">
        <field name="tcp.option_kind" showname="Kind: No-Operation (1)" size="1" pos="45" show="1" value="01"/>
      </field>
      <field name="tcp.options.timestamp" showname="TCP Option - Timestamps: TSval 4140786742, TSecr 602516251" size="10" pos="46" show="08:0a:f6:cf:64:36:23:e9:ab:1b" value="080af6cf643623e9ab1b">
        <field name="tcp.option_kind" showname="Kind: Time Stamp Option (8)" size="1" pos="46" show="8" value="08"/>
        <field name="tcp.option_len" showname="Length: 10" size="1" pos="47" show="10" value="0a"/>
        <field name="tcp.options.timestamp.tsval" showname="Timestamp value: 4140786742" size="4" pos="48" show="4140786742" value="f6cf6436"/>
        <field name="tcp.options.timestamp.tsecr" showname="Timestamp echo reply: 602516251" size="4" pos="52" show="602516251" value="23e9ab1b"/>
      </field>
    </field>
    <field name="" show="Timestamps" size="0" pos="24">
      <field name="tcp.time_relative" showname="Time since first frame in this TCP stream: 9.975000 milliseconds" size="0" pos="24" show="0.009975000"/>
      <field name="tcp.time_delta" showname="Time since previous frame in this TCP stream: 40.000 microseconds" size="0" pos="24" show="0.000040000"/>
    </field>
    <field name="tcp.analysis" showname="SEQ/ACK analysis" size="0" pos="24" show="" value="">
      <field name="tcp.analysis.acks_frame" showname="This is an ACK to the segment in frame: 11" size="0" pos="24" show="11"/>
      <field name="tcp.analysis.ack_rtt" showname="The RTT to ACK the segment was: 40.000 microseconds" size="0" pos="24" show="0.000040000"/>
      <field name="tcp.analysis.initial_rtt" showname="iRTT: 120.000 microseconds" size="0" pos="24" show="0.000120000"/>
    </field>
    <field name="tcp.stream.client.contiguity_count" showname="Client Contiguous Streams: 1" size="0" pos="24" show="1"/>
    <field name="tcp.stream.server.contiguity_count" showname="Server Contiguous Streams: 1" size="0" pos="24" show="1"/>
  </proto>
</packet>


</pdml>
