<?xml version="1.0" encoding="utf-8"?>
<?xml-stylesheet type="text/xsl" href="pdml2html.xsl"?>
<!-- You can find pdml2html.xsl in /opt/homebrew/share/doc/wireshark or at https://gitlab.com/wireshark/wireshark/-/tree/master/resources/share/doc/wireshark/pdml2html.xsl. -->
<pdml version="0" creator="wireshark/4.6.8" time="Mon Sep 14 06:56:24 2026" capture_file="/Users/vonirug/Yandex.Disk.localized/projects/conf/smartdata2026/workshop/results/captures/smartdata-v96-20260914-065609/ch-http-rowbinary/capture.pcapng">
<packet>
  <proto name="geninfo" pos="0" showname="General information" size="68">
    <field name="num" pos="0" show="1" showname="Number" value="1" size="68"/>
    <field name="len" pos="0" show="68" showname="Frame Length" value="44" size="68"/>
    <field name="caplen" pos="0" show="68" showname="Captured Length" value="44" size="68"/>
    <field name="timestamp" pos="0" show="Sep 14, 2026 06:56:24.059037000 MSK" showname="Captured Time" value="1789358184.059037000" size="68"/>
  </proto>
  <proto name="frame" showname="Frame 1: Packet, 68 bytes on wire (544 bits), 68 bytes captured (544 bits) on interface lo0, id 0" size="68" pos="0">
    <field name="frame.section_number" showname="Section number: 1" size="0" pos="0" show="1"/>
    <field name="frame.interface_id" showname="Interface id: 0 (lo0)" size="0" pos="0" show="0">
      <field name="frame.interface_name" showname="Interface name: lo0" size="0" pos="0" show="lo0"/>
      <field name="frame.interface_description" showname="Interface description: Loopback" size="0" pos="0" show="Loopback"/>
    </field>
    <field name="frame.encap_type" showname="Encapsulation type: NULL/Loopback (15)" size="0" pos="0" show="15"/>
    <field name="frame.time" showname="Arrival Time: Sep 14, 2026 06:56:24.059037000 MSK" size="0" pos="0" show="2026-09-14T06:56:24.059037000+0300"/>
    <field name="frame.time_utc" showname="UTC Arrival Time: Sep 14, 2026 03:56:24.059037000 UTC" size="0" pos="0" show="2026-09-14T03:56:24.059037000Z"/>
    <field name="frame.time_epoch" showname="Epoch Arrival Time: 1789358184.059037000" size="0" pos="0" show="1789358184.059037000"/>
    <field name="frame.offset_shift" showname="Time shift for this packet: 0.000000000 seconds" size="0" pos="0" show="0.000000000"/>
    <field name="frame.time_relative" showname="Time since reference or first frame: 0.000000000 seconds" size="0" pos="0" show="0.000000000"/>
    <field name="frame.number" showname="Frame Number: 1" size="0" pos="0" show="1"/>
    <field name="frame.len" showname="Frame Length: 68 bytes (544 bits)" size="0" pos="0" show="68"/>
    <field name="frame.cap_len" showname="Capture Length: 68 bytes (544 bits)" size="0" pos="0" show="68"/>
    <field name="frame.marked" showname="Frame is marked: False" size="0" pos="0" show="False"/>
    <field name="frame.ignored" showname="Frame is ignored: False" size="0" pos="0" show="False"/>
    <field name="frame.protocols" showname="Protocols in frame: null:ip:tcp" size="0" pos="0" show="null:ip:tcp"/>
    <field name="frame.encoding" showname="Character encoding: ASCII (0)" size="0" pos="0" show="0"/>
  </proto>
  <proto name="null" showname="Null/Loopback" size="4" pos="0">
    <field name="null.family" showname="Family: IP (2)" size="4" pos="0" show="2" value="02000000"/>
  </proto>
  <proto name="ip" showname="Internet Protocol Version 4, Src: 127.0.0.1, Dst: 127.0.0.1" size="20" pos="4">
    <field name="ip.version" showname="0100 .... = Version: 4" size="1" pos="4" show="4" value="45"/>
    <field name="ip.hdr_len" showname=".... 0101 = Header Length: 20 bytes (5)" size="1" pos="4" show="20" value="45"/>
    <field name="ip.dsfield" showname="Differentiated Services Field: 0x00 (DSCP: CS0, ECN: Not-ECT)" size="1" pos="5" show="0x00" value="00">
      <field name="ip.dsfield.dscp" showname="0000 00.. = Differentiated Services Codepoint: Default (0)" size="1" pos="5" show="0" value="0" unmaskedvalue="00"/>
      <field name="ip.dsfield.ecn" showname=".... ..00 = Explicit Congestion Notification: Not ECN-Capable Transport (0)" size="1" pos="5" show="0" value="0" unmaskedvalue="00"/>
    </field>
    <field name="ip.len" showname="Total Length: 64" size="2" pos="6" show="64" value="0040"/>
    <field name="ip.id" showname="Identification: 0x0000 (0)" size="2" pos="8" show="0x0000" value="0000"/>
    <field name="ip.flags" showname="010. .... = Flags: 0x2, Don&#x27;t fragment" size="1" pos="10" show="0x02" value="2" unmaskedvalue="40">
      <field name="ip.flags.rb" showname="0... .... = Reserved bit: Not set" size="1" pos="10" show="False" value="0" unmaskedvalue="40"/>
      <field name="ip.flags.df" showname=".1.. .... = Don&#x27;t fragment: Set" size="1" pos="10" show="True" value="1" unmaskedvalue="40"/>
      <field name="ip.flags.mf" showname="..0. .... = More fragments: Not set" size="1" pos="10" show="False" value="0" unmaskedvalue="40"/>
    </field>
    <field name="ip.frag_offset" showname="...0 0000 0000 0000 = Fragment Offset: 0" size="2" pos="10" show="0" value="0" unmaskedvalue="4000"/>
    <field name="ip.ttl" showname="Time to Live: 64" size="1" pos="12" show="64" value="40"/>
    <field name="ip.proto" showname="Protocol: TCP (6)" size="1" pos="13" show="6" value="06"/>
    <field name="ip.checksum" showname="Header Checksum: 0x0000 [validation disabled]" size="2" pos="14" show="0x0000" value="0000"/>
    <field name="ip.checksum.status" showname="Header checksum status: Unverified" size="0" pos="14" show="2"/>
    <field name="ip.src" showname="Source Address: 127.0.0.1" size="4" pos="16" show="127.0.0.1" value="7f000001"/>
    <field name="ip.addr" showname="Source or Destination Address: 127.0.0.1" hide="yes" size="4" pos="16" show="127.0.0.1" value="7f000001"/>
    <field name="ip.src_host" showname="Source Host: 127.0.0.1" hide="yes" size="4" pos="16" show="127.0.0.1" value="7f000001"/>
    <field name="ip.host" showname="Source or Destination Host: 127.0.0.1" hide="yes" size="4" pos="16" show="127.0.0.1" value="7f000001"/>
    <field name="ip.dst" showname="Destination Address: 127.0.0.1" size="4" pos="20" show="127.0.0.1" value="7f000001"/>
    <field name="ip.addr" showname="Source or Destination Address: 127.0.0.1" hide="yes" size="4" pos="20" show="127.0.0.1" value="7f000001"/>
    <field name="ip.dst_host" showname="Destination Host: 127.0.0.1" hide="yes" size="4" pos="20" show="127.0.0.1" value="7f000001"/>
    <field name="ip.host" showname="Source or Destination Host: 127.0.0.1" hide="yes" size="4" pos="20" show="127.0.0.1" value="7f000001"/>
    <field name="ip.stream" showname="Stream index: 0" size="0" pos="24" show="0"/>
  </proto>
  <proto name="tcp" showname="Transmission Control Protocol, Src Port: 56080, Dst Port: 18123, Seq: 0, Len: 0" size="44" pos="24">
    <field name="tcp.srcport" showname="Source Port: 56080" size="2" pos="24" show="56080" value="db10"/>
    <field name="tcp.dstport" showname="Destination Port: 18123" size="2" pos="26" show="18123" value="46cb"/>
    <field name="tcp.port" showname="Source or Destination Port: 56080" hide="yes" size="2" pos="24" show="56080" value="db10"/>
    <field name="tcp.port" showname="Source or Destination Port: 18123" hide="yes" size="2" pos="26" show="18123" value="46cb"/>
    <field name="tcp.stream" showname="Stream index: 0" size="0" pos="24" show="0"/>
    <field name="tcp.stream.pnum" showname="Stream Packet Number: 1" size="0" pos="24" show="1"/>
    <field name="tcp.completeness" showname="Conversation completeness: Incomplete (0)" size="0" pos="24" show="0">
      <field name="tcp.completeness.rst" showname="..0. .... = RST: Absent" size="0" pos="0" show="False"/>
      <field name="tcp.completeness.fin" showname="...0 .... = FIN: Absent" size="0" pos="0" show="False"/>
      <field name="tcp.completeness.data" showname=".... 0... = Data: Absent" size="0" pos="0" show="False"/>
      <field name="tcp.completeness.ack" showname=".... .0.. = ACK: Absent" size="0" pos="0" show="False"/>
      <field name="tcp.completeness.syn-ack" showname=".... ..0. = SYN-ACK: Absent" size="0" pos="0" show="False"/>
      <field name="tcp.completeness.syn" showname=".... ...0 = SYN: Absent" size="0" pos="0" show="False"/>
      <field name="tcp.completeness.str" showname="Completeness Flags: [ Null ]" size="0" pos="24" show="[ Null ]"/>
    </field>
    <field name="tcp.len" showname="TCP Segment Len: 0" size="0" pos="24" show="0"/>
    <field name="tcp.seq" showname="Sequence Number: 0    (relative sequence number)" size="4" pos="28" show="0" value="34119806"/>
    <field name="tcp.seq_raw" showname="Sequence Number (raw): 873568262" size="4" pos="28" show="873568262" value="34119806"/>
    <field name="tcp.nxtseq" showname="Next Sequence Number: 1    (relative sequence number)" size="0" pos="24" show="1"/>
    <field name="tcp.ack" showname="Acknowledgment Number: 0" size="4" pos="32" show="0" value="00000000"/>
    <field name="tcp.ack_raw" showname="Acknowledgment number (raw): 0" size="4" pos="32" show="0" value="00000000"/>
    <field name="tcp.hdr_len" showname="1011 .... = Header Length: 44 bytes (11)" size="1" pos="36" show="44" value="b0"/>
    <field name="tcp.flags" showname="Flags: 0x002 (SYN)" size="2" pos="36" show="0x0002" value="2" unmaskedvalue="b002">
      <field name="tcp.flags.res" showname="000. .... .... = Reserved: Not set" size="1" pos="36" show="False" value="0" unmaskedvalue="b0"/>
      <field name="tcp.flags.ae" showname="...0 .... .... = Accurate ECN: Not set" size="1" pos="36" show="False" value="0" unmaskedvalue="b0"/>
      <field name="tcp.flags.cwr" showname=".... 0... .... = Congestion Window Reduced: Not set" size="1" pos="37" show="False" value="0" unmaskedvalue="02"/>
      <field name="tcp.flags.ece" showname=".... .0.. .... = ECN-Echo: Not set" size="1" pos="37" show="False" value="0" unmaskedvalue="02"/>
      <field name="tcp.flags.urg" showname=".... ..0. .... = Urgent: Not set" size="1" pos="37" show="False" value="0" unmaskedvalue="02"/>
      <field name="tcp.flags.ack" showname=".... ...0 .... = Acknowledgment: Not set" size="1" pos="37" show="False" value="0" unmaskedvalue="02"/>
      <field name="tcp.flags.push" showname=".... .... 0... = Push: Not set" size="1" pos="37" show="False" value="0" unmaskedvalue="02"/>
      <field name="tcp.flags.reset" showname=".... .... .0.. = Reset: Not set" size="1" pos="37" show="False" value="0" unmaskedvalue="02"/>
      <field name="tcp.flags.syn" showname=".... .... ..1. = Syn: Set" size="1" pos="37" show="True" value="1" unmaskedvalue="02">
        <field name="_ws.expert" showname="Expert Info (Chat/Sequence): Connection establish request (SYN): server port 18123" size="0" pos="37">
          <field name="tcp.connection.syn" showname="Connection establish request (SYN): server port 18123" size="0" pos="0" show="" value=""/>
          <field name="_ws.expert.message" showname="Message: Connection establish request (SYN): server port 18123" hide="yes" size="0" pos="0" show="Connection establish request (SYN): server port 18123"/>
          <field name="_ws.expert.severity" showname="Severity level: Chat" size="0" pos="0" show="2097152"/>
          <field name="_ws.expert.group" showname="Group: Sequence" size="0" pos="0" show="33554432"/>
        </field>
      </field>
      <field name="tcp.flags.fin" showname=".... .... ...0 = Fin: Not set" size="1" pos="37" show="False" value="0" unmaskedvalue="02"/>
      <field name="tcp.flags.str" showname="TCP Flags: ··········S·" size="2" pos="36" show="··········S·" value="b002"/>
    </field>
    <field name="tcp.window_size_value" showname="Window: 65535" size="2" pos="38" show="65535" value="ffff"/>
    <field name="tcp.window_size" showname="Calculated window size: 65535" size="2" pos="38" show="65535" value="ffff"/>
    <field name="tcp.checksum" showname="Checksum: 0xfe34 [unverified]" size="2" pos="40" show="0xfe34" value="fe34"/>
    <field name="tcp.checksum.status" showname="Checksum Status: Unverified" size="0" pos="40" show="2"/>
    <field name="tcp.urgent_pointer" showname="Urgent Pointer: 0" size="2" pos="42" show="0" value="0000"/>
    <field name="tcp.options" showname="Options: (24 bytes), Maximum segment size, No-Operation (NOP), Window scale, No-Operation (NOP), No-Operation (NOP), Timestamps, SACK permitted, End of Option List (EOL), End of Option List (EOL)" size="24" pos="44" show="02:04:3f:d8:01:03:03:06:01:01:08:0a:87:12:aa:50:00:00:00:00:04:02:00:00" value="02043fd8010303060101080a8712aa500000000004020000">
      <field name="tcp.options.mss" showname="TCP Option - Maximum segment size: 16344 bytes" size="4" pos="44" show="02:04:3f:d8" value="02043fd8">
        <field name="tcp.option_kind" showname="Kind: Maximum Segment Size (2)" size="1" pos="44" show="2" value="02"/>
        <field name="tcp.option_len" showname="Length: 4" size="1" pos="45" show="4" value="04"/>
        <field name="tcp.options.mss_val" showname="MSS Value: 16344" size="2" pos="46" show="16344" value="3fd8"/>
      </field>
      <field name="tcp.options.nop" showname="TCP Option - No-Operation (NOP)" size="1" pos="48" show="01" value="01">
        <field name="tcp.option_kind" showname="Kind: No-Operation (1)" size="1" pos="48" show="1" value="01"/>
      </field>
      <field name="tcp.options.wscale" showname="TCP Option - Window scale: 6 (multiply by 64)" size="3" pos="49" show="03:03:06" value="030306">
        <field name="tcp.option_kind" showname="Kind: Window Scale (3)" size="1" pos="49" show="3" value="03"/>
        <field name="tcp.option_len" showname="Length: 3" size="1" pos="50" show="3" value="03"/>
        <field name="tcp.options.wscale.shift" showname="Shift count: 6" size="1" pos="51" show="6" value="06"/>
        <field name="tcp.options.wscale.multiplier" showname="Multiplier: 64" size="1" pos="51" show="64" value="06"/>
      </field>
      <field name="tcp.options.nop" showname="TCP Option - No-Operation (NOP)" size="1" pos="52" show="01" value="01">
        <field name="tcp.option_kind" showname="Kind: No-Operation (1)" size="1" pos="52" show="1" value="01"/>
      </field>
      <field name="tcp.options.nop" showname="TCP Option - No-Operation (NOP)" size="1" pos="53" show="01" value="01">
        <field name="tcp.option_kind" showname="Kind: No-Operation (1)" size="1" pos="53" show="1" value="01"/>
      </field>
      <field name="tcp.options.timestamp" showname="TCP Option - Timestamps: TSval 2266147408, TSecr 0" size="10" pos="54" show="08:0a:87:12:aa:50:00:00:00:00" value="080a8712aa5000000000">
        <field name="tcp.option_kind" showname="Kind: Time Stamp Option (8)" size="1" pos="54" show="8" value="08"/>
        <field name="tcp.option_len" showname="Length: 10" size="1" pos="55" show="10" value="0a"/>
        <field name="tcp.options.timestamp.tsval" showname="Timestamp value: 2266147408" size="4" pos="56" show="2266147408" value="8712aa50"/>
        <field name="tcp.options.timestamp.tsecr" showname="Timestamp echo reply: 0" size="4" pos="60" show="0" value="00000000"/>
      </field>
      <field name="tcp.options.sack_perm" showname="TCP Option - SACK permitted" size="2" pos="64" show="04:02" value="0402">
        <field name="tcp.option_kind" showname="Kind: SACK Permitted (4)" size="1" pos="64" show="4" value="04"/>
        <field name="tcp.option_len" showname="Length: 2" size="1" pos="65" show="2" value="02"/>
      </field>
      <field name="tcp.options.eol" showname="TCP Option - End of Option List (EOL)" size="1" pos="66" show="00" value="00">
        <field name="tcp.option_kind" showname="Kind: End of Option List (0)" size="1" pos="66" show="0" value="00"/>
      </field>
      <field name="tcp.options.eol" showname="TCP Option - End of Option List (EOL)" size="1" pos="67" show="00" value="00">
        <field name="tcp.option_kind" showname="Kind: End of Option List (0)" size="1" pos="67" show="0" value="00"/>
      </field>
    </field>
    <field name="" show="Timestamps" size="0" pos="24">
      <field name="tcp.time_relative" showname="Time since first frame in this TCP stream: 0.000000000 seconds" size="0" pos="24" show="0.000000000"/>
      <field name="tcp.time_delta" showname="Time since previous frame in this TCP stream: 0.000000000 seconds" size="0" pos="24" show="0.000000000"/>
    </field>
    <field name="tcp.stream.client.contiguity_count" showname="Client Contiguous Streams: 0" size="0" pos="24" show="0"/>
    <field name="tcp.stream.server.contiguity_count" showname="Server Contiguous Streams: 1" size="0" pos="24" show="1"/>
  </proto>
</packet>


<packet>
  <proto name="geninfo" pos="0" showname="General information" size="68">
    <field name="num" pos="0" show="2" showname="Number" value="2" size="68"/>
    <field name="len" pos="0" show="68" showname="Frame Length" value="44" size="68"/>
    <field name="caplen" pos="0" show="68" showname="Captured Length" value="44" size="68"/>
    <field name="timestamp" pos="0" show="Sep 14, 2026 06:56:24.059168000 MSK" showname="Captured Time" value="1789358184.059168000" size="68"/>
  </proto>
  <proto name="frame" showname="Frame 2: Packet, 68 bytes on wire (544 bits), 68 bytes captured (544 bits) on interface lo0, id 0" size="68" pos="0">
    <field name="frame.section_number" showname="Section number: 1" size="0" pos="0" show="1"/>
    <field name="frame.interface_id" showname="Interface id: 0 (lo0)" size="0" pos="0" show="0">
      <field name="frame.interface_name" showname="Interface name: lo0" size="0" pos="0" show="lo0"/>
      <field name="frame.interface_description" showname="Interface description: Loopback" size="0" pos="0" show="Loopback"/>
    </field>
    <field name="frame.encap_type" showname="Encapsulation type: NULL/Loopback (15)" size="0" pos="0" show="15"/>
    <field name="frame.time" showname="Arrival Time: Sep 14, 2026 06:56:24.059168000 MSK" size="0" pos="0" show="2026-09-14T06:56:24.059168000+0300"/>
    <field name="frame.time_utc" showname="UTC Arrival Time: Sep 14, 2026 03:56:24.059168000 UTC" size="0" pos="0" show="2026-09-14T03:56:24.059168000Z"/>
    <field name="frame.time_epoch" showname="Epoch Arrival Time: 1789358184.059168000" size="0" pos="0" show="1789358184.059168000"/>
    <field name="frame.offset_shift" showname="Time shift for this packet: 0.000000000 seconds" size="0" pos="0" show="0.000000000"/>
    <field name="frame.time_delta" showname="Time delta from previous captured frame: 131.000 microseconds" size="0" pos="0" show="0.000131000"/>
    <field name="frame.time_delta_displayed" showname="Time delta from previous displayed frame: 131.000 microseconds" size="0" pos="0" show="0.000131000"/>
    <field name="frame.time_relative" showname="Time since reference or first frame: 131.000 microseconds" size="0" pos="0" show="0.000131000"/>
    <field name="frame.number" showname="Frame Number: 2" size="0" pos="0" show="2"/>
    <field name="frame.len" showname="Frame Length: 68 bytes (544 bits)" size="0" pos="0" show="68"/>
    <field name="frame.cap_len" showname="Capture Length: 68 bytes (544 bits)" size="0" pos="0" show="68"/>
    <field name="frame.marked" showname="Frame is marked: False" size="0" pos="0" show="False"/>
    <field name="frame.ignored" showname="Frame is ignored: False" size="0" pos="0" show="False"/>
    <field name="frame.protocols" showname="Protocols in frame: null:ip:tcp" size="0" pos="0" show="null:ip:tcp"/>
    <field name="frame.encoding" showname="Character encoding: ASCII (0)" size="0" pos="0" show="0"/>
  </proto>
  <proto name="null" showname="Null/Loopback" size="4" pos="0">
    <field name="null.family" showname="Family: IP (2)" size="4" pos="0" show="2" value="02000000"/>
  </proto>
  <proto name="ip" showname="Internet Protocol Version 4, Src: 127.0.0.1, Dst: 127.0.0.1" size="20" pos="4">
    <field name="ip.version" showname="0100 .... = Version: 4" size="1" pos="4" show="4" value="45"/>
    <field name="ip.hdr_len" showname=".... 0101 = Header Length: 20 bytes (5)" size="1" pos="4" show="20" value="45"/>
    <field name="ip.dsfield" showname="Differentiated Services Field: 0x00 (DSCP: CS0, ECN: Not-ECT)" size="1" pos="5" show="0x00" value="00">
      <field name="ip.dsfield.dscp" showname="0000 00.. = Differentiated Services Codepoint: Default (0)" size="1" pos="5" show="0" value="0" unmaskedvalue="00"/>
      <field name="ip.dsfield.ecn" showname=".... ..00 = Explicit Congestion Notification: Not ECN-Capable Transport (0)" size="1" pos="5" show="0" value="0" unmaskedvalue="00"/>
    </field>
    <field name="ip.len" showname="Total Length: 64" size="2" pos="6" show="64" value="0040"/>
    <field name="ip.id" showname="Identification: 0x0000 (0)" size="2" pos="8" show="0x0000" value="0000"/>
    <field name="ip.flags" showname="010. .... = Flags: 0x2, Don&#x27;t fragment" size="1" pos="10" show="0x02" value="2" unmaskedvalue="40">
      <field name="ip.flags.rb" showname="0... .... = Reserved bit: Not set" size="1" pos="10" show="False" value="0" unmaskedvalue="40"/>
      <field name="ip.flags.df" showname=".1.. .... = Don&#x27;t fragment: Set" size="1" pos="10" show="True" value="1" unmaskedvalue="40"/>
      <field name="ip.flags.mf" showname="..0. .... = More fragments: Not set" size="1" pos="10" show="False" value="0" unmaskedvalue="40"/>
    </field>
    <field name="ip.frag_offset" showname="...0 0000 0000 0000 = Fragment Offset: 0" size="2" pos="10" show="0" value="0" unmaskedvalue="4000"/>
    <field name="ip.ttl" showname="Time to Live: 64" size="1" pos="12" show="64" value="40"/>
    <field name="ip.proto" showname="Protocol: TCP (6)" size="1" pos="13" show="6" value="06"/>
    <field name="ip.checksum" showname="Header Checksum: 0x0000 [validation disabled]" size="2" pos="14" show="0x0000" value="0000"/>
    <field name="ip.checksum.status" showname="Header checksum status: Unverified" size="0" pos="14" show="2"/>
    <field name="ip.src" showname="Source Address: 127.0.0.1" size="4" pos="16" show="127.0.0.1" value="7f000001"/>
    <field name="ip.addr" showname="Source or Destination Address: 127.0.0.1" hide="yes" size="4" pos="16" show="127.0.0.1" value="7f000001"/>
    <field name="ip.src_host" showname="Source Host: 127.0.0.1" hide="yes" size="4" pos="16" show="127.0.0.1" value="7f000001"/>
    <field name="ip.host" showname="Source or Destination Host: 127.0.0.1" hide="yes" size="4" pos="16" show="127.0.0.1" value="7f000001"/>
    <field name="ip.dst" showname="Destination Address: 127.0.0.1" size="4" pos="20" show="127.0.0.1" value="7f000001"/>
    <field name="ip.addr" showname="Source or Destination Address: 127.0.0.1" hide="yes" size="4" pos="20" show="127.0.0.1" value="7f000001"/>
    <field name="ip.dst_host" showname="Destination Host: 127.0.0.1" hide="yes" size="4" pos="20" show="127.0.0.1" value="7f000001"/>
    <field name="ip.host" showname="Source or Destination Host: 127.0.0.1" hide="yes" size="4" pos="20" show="127.0.0.1" value="7f000001"/>
    <field name="ip.stream" showname="Stream index: 0" size="0" pos="24" show="0"/>
  </proto>
  <proto name="tcp" showname="Transmission Control Protocol, Src Port: 18123, Dst Port: 56080, Seq: 0, Ack: 1, Len: 0" size="44" pos="24">
    <field name="tcp.srcport" showname="Source Port: 18123" size="2" pos="24" show="18123" value="46cb"/>
    <field name="tcp.dstport" showname="Destination Port: 56080" size="2" pos="26" show="56080" value="db10"/>
    <field name="tcp.port" showname="Source or Destination Port: 18123" hide="yes" size="2" pos="24" show="18123" value="46cb"/>
    <field name="tcp.port" showname="Source or Destination Port: 56080" hide="yes" size="2" pos="26" show="56080" value="db10"/>
    <field name="tcp.stream" showname="Stream index: 0" size="0" pos="24" show="0"/>
    <field name="tcp.stream.pnum" showname="Stream Packet Number: 2" size="0" pos="24" show="2"/>
    <field name="tcp.completeness" showname="Conversation completeness: Incomplete, SYN_SENT (1)" size="0" pos="24" show="1">
      <field name="tcp.completeness.rst" showname="..0. .... = RST: Absent" size="0" pos="0" show="False"/>
      <field name="tcp.completeness.fin" showname="...0 .... = FIN: Absent" size="0" pos="0" show="False"/>
      <field name="tcp.completeness.data" showname=".... 0... = Data: Absent" size="0" pos="0" show="False"/>
      <field name="tcp.completeness.ack" showname=".... .0.. = ACK: Absent" size="0" pos="0" show="False"/>
      <field name="tcp.completeness.syn-ack" showname=".... ..0. = SYN-ACK: Absent" size="0" pos="0" show="False"/>
      <field name="tcp.completeness.syn" showname=".... ...1 = SYN: Present" size="0" pos="0" show="True"/>
      <field name="tcp.completeness.str" showname="Completeness Flags: ·····S" size="0" pos="24" show="·····S"/>
    </field>
    <field name="tcp.len" showname="TCP Segment Len: 0" size="0" pos="24" show="0"/>
    <field name="tcp.seq" showname="Sequence Number: 0    (relative sequence number)" size="4" pos="28" show="0" value="a8ebad18"/>
    <field name="tcp.seq_raw" showname="Sequence Number (raw): 2834017560" size="4" pos="28" show="2834017560" value="a8ebad18"/>
    <field name="tcp.nxtseq" showname="Next Sequence Number: 1    (relative sequence number)" size="0" pos="24" show="1"/>
    <field name="tcp.ack" showname="Acknowledgment Number: 1    (relative ack number)" size="4" pos="32" show="1" value="34119807"/>
    <field name="tcp.ack_raw" showname="Acknowledgment number (raw): 873568263" size="4" pos="32" show="873568263" value="34119807"/>
    <field name="tcp.hdr_len" showname="1011 .... = Header Length: 44 bytes (11)" size="1" pos="36" show="44" value="b0"/>
    <field name="tcp.flags" showname="Flags: 0x012 (SYN, ACK)" size="2" pos="36" show="0x0012" value="12" unmaskedvalue="b012">
      <field name="tcp.flags.res" showname="000. .... .... = Reserved: Not set" size="1" pos="36" show="False" value="0" unmaskedvalue="b0"/>
      <field name="tcp.flags.ae" showname="...0 .... .... = Accurate ECN: Not set" size="1" pos="36" show="False" value="0" unmaskedvalue="b0"/>
      <field name="tcp.flags.cwr" showname=".... 0... .... = Congestion Window Reduced: Not set" size="1" pos="37" show="False" value="0" unmaskedvalue="12"/>
      <field name="tcp.flags.ece" showname=".... .0.. .... = ECN-Echo: Not set" size="1" pos="37" show="False" value="0" unmaskedvalue="12"/>
      <field name="tcp.flags.urg" showname=".... ..0. .... = Urgent: Not set" size="1" pos="37" show="False" value="0" unmaskedvalue="12"/>
      <field name="tcp.flags.ack" showname=".... ...1 .... = Acknowledgment: Set" size="1" pos="37" show="True" value="1" unmaskedvalue="12"/>
      <field name="tcp.flags.push" showname=".... .... 0... = Push: Not set" size="1" pos="37" show="False" value="0" unmaskedvalue="12"/>
      <field name="tcp.flags.reset" showname=".... .... .0.. = Reset: Not set" size="1" pos="37" show="False" value="0" unmaskedvalue="12"/>
      <field name="tcp.flags.syn" showname=".... .... ..1. = Syn: Set" size="1" pos="37" show="True" value="1" unmaskedvalue="12">
        <field name="_ws.expert" showname="Expert Info (Chat/Sequence): Connection establish acknowledge (SYN+ACK): server port 18123" size="0" pos="37">
          <field name="tcp.connection.synack" showname="Connection establish acknowledge (SYN+ACK): server port 18123" size="0" pos="0" show="" value=""/>
          <field name="_ws.expert.message" showname="Message: Connection establish acknowledge (SYN+ACK): server port 18123" hide="yes" size="0" pos="0" show="Connection establish acknowledge (SYN+ACK): server port 18123"/>
          <field name="_ws.expert.severity" showname="Severity level: Chat" size="0" pos="0" show="2097152"/>
          <field name="_ws.expert.group" showname="Group: Sequence" size="0" pos="0" show="33554432"/>
        </field>
      </field>
      <field name="tcp.flags.fin" showname=".... .... ...0 = Fin: Not set" size="1" pos="37" show="False" value="0" unmaskedvalue="12"/>
      <field name="tcp.flags.str" showname="TCP Flags: ·······A··S·" size="2" pos="36" show="·······A··S·" value="b012"/>
    </field>
    <field name="tcp.window_size_value" showname="Window: 65535" size="2" pos="38" show="65535" value="ffff"/>
    <field name="tcp.window_size" showname="Calculated window size: 65535" size="2" pos="38" show="65535" value="ffff"/>
    <field name="tcp.checksum" showname="Checksum: 0xfe34 [unverified]" size="2" pos="40" show="0xfe34" value="fe34"/>
    <field name="tcp.checksum.status" showname="Checksum Status: Unverified" size="0" pos="40" show="2"/>
    <field name="tcp.urgent_pointer" showname="Urgent Pointer: 0" size="2" pos="42" show="0" value="0000"/>
    <field name="tcp.options" showname="Options: (24 bytes), Maximum segment size, No-Operation (NOP), Window scale, No-Operation (NOP), No-Operation (NOP), Timestamps, SACK permitted, End of Option List (EOL), End of Option List (EOL)" size="24" pos="44" show="02:04:3f:d8:01:03:03:06:01:01:08:0a:94:78:ca:cc:87:12:aa:50:04:02:00:00" value="02043fd8010303060101080a9478cacc8712aa5004020000">
      <field name="tcp.options.mss" showname="TCP Option - Maximum segment size: 16344 bytes" size="4" pos="44" show="02:04:3f:d8" value="02043fd8">
        <field name="tcp.option_kind" showname="Kind: Maximum Segment Size (2)" size="1" pos="44" show="2" value="02"/>
        <field name="tcp.option_len" showname="Length: 4" size="1" pos="45" show="4" value="04"/>
        <field name="tcp.options.mss_val" showname="MSS Value: 16344" size="2" pos="46" show="16344" value="3fd8"/>
      </field>
      <field name="tcp.options.nop" showname="TCP Option - No-Operation (NOP)" size="1" pos="48" show="01" value="01">
        <field name="tcp.option_kind" showname="Kind: No-Operation (1)" size="1" pos="48" show="1" value="01"/>
      </field>
      <field name="tcp.options.wscale" showname="TCP Option - Window scale: 6 (multiply by 64)" size="3" pos="49" show="03:03:06" value="030306">
        <field name="tcp.option_kind" showname="Kind: Window Scale (3)" size="1" pos="49" show="3" value="03"/>
        <field name="tcp.option_len" showname="Length: 3" size="1" pos="50" show="3" value="03"/>
        <field name="tcp.options.wscale.shift" showname="Shift count: 6" size="1" pos="51" show="6" value="06"/>
        <field name="tcp.options.wscale.multiplier" showname="Multiplier: 64" size="1" pos="51" show="64" value="06"/>
      </field>
      <field name="tcp.options.nop" showname="TCP Option - No-Operation (NOP)" size="1" pos="52" show="01" value="01">
        <field name="tcp.option_kind" showname="Kind: No-Operation (1)" size="1" pos="52" show="1" value="01"/>
      </field>
      <field name="tcp.options.nop" showname="TCP Option - No-Operation (NOP)" size="1" pos="53" show="01" value="01">
        <field name="tcp.option_kind" showname="Kind: No-Operation (1)" size="1" pos="53" show="1" value="01"/>
      </field>
      <field name="tcp.options.timestamp" showname="TCP Option - Timestamps: TSval 2490944204, TSecr 2266147408" size="10" pos="54" show="08:0a:94:78:ca:cc:87:12:aa:50" value="080a9478cacc8712aa50">
        <field name="tcp.option_kind" showname="Kind: Time Stamp Option (8)" size="1" pos="54" show="8" value="08"/>
        <field name="tcp.option_len" showname="Length: 10" size="1" pos="55" show="10" value="0a"/>
        <field name="tcp.options.timestamp.tsval" showname="Timestamp value: 2490944204" size="4" pos="56" show="2490944204" value="9478cacc"/>
        <field name="tcp.options.timestamp.tsecr" showname="Timestamp echo reply: 2266147408" size="4" pos="60" show="2266147408" value="8712aa50"/>
      </field>
      <field name="tcp.options.sack_perm" showname="TCP Option - SACK permitted" size="2" pos="64" show="04:02" value="0402">
        <field name="tcp.option_kind" showname="Kind: SACK Permitted (4)" size="1" pos="64" show="4" value="04"/>
        <field name="tcp.option_len" showname="Length: 2" size="1" pos="65" show="2" value="02"/>
      </field>
      <field name="tcp.options.eol" showname="TCP Option - End of Option List (EOL)" size="1" pos="66" show="00" value="00">
        <field name="tcp.option_kind" showname="Kind: End of Option List (0)" size="1" pos="66" show="0" value="00"/>
      </field>
      <field name="tcp.options.eol" showname="TCP Option - End of Option List (EOL)" size="1" pos="67" show="00" value="00">
        <field name="tcp.option_kind" showname="Kind: End of Option List (0)" size="1" pos="67" show="0" value="00"/>
      </field>
    </field>
    <field name="" show="Timestamps" size="0" pos="24">
      <field name="tcp.time_relative" showname="Time since first frame in this TCP stream: 131.000 microseconds" size="0" pos="24" show="0.000131000"/>
      <field name="tcp.time_delta" showname="Time since previous frame in this TCP stream: 131.000 microseconds" size="0" pos="24" show="0.000131000"/>
    </field>
    <field name="tcp.analysis" showname="SEQ/ACK analysis" size="0" pos="24" show="" value="">
      <field name="tcp.analysis.acks_frame" showname="This is an ACK to the segment in frame: 1" size="0" pos="24" show="1"/>
      <field name="tcp.analysis.ack_rtt" showname="The RTT to ACK the segment was: 131.000 microseconds" size="0" pos="24" show="0.000131000"/>
    </field>
    <field name="tcp.stream.client.contiguity_count" showname="Client Contiguous Streams: 1" size="0" pos="24" show="1"/>
    <field name="tcp.stream.server.contiguity_count" showname="Server Contiguous Streams: 1" size="0" pos="24" show="1"/>
  </proto>
</packet>


<packet>
  <proto name="geninfo" pos="0" showname="General information" size="56">
    <field name="num" pos="0" show="3" showname="Number" value="3" size="56"/>
    <field name="len" pos="0" show="56" showname="Frame Length" value="38" size="56"/>
    <field name="caplen" pos="0" show="56" showname="Captured Length" value="38" size="56"/>
    <field name="timestamp" pos="0" show="Sep 14, 2026 06:56:24.059210000 MSK" showname="Captured Time" value="1789358184.059210000" size="56"/>
  </proto>
  <proto name="frame" showname="Frame 3: Packet, 56 bytes on wire (448 bits), 56 bytes captured (448 bits) on interface lo0, id 0" size="56" pos="0">
    <field name="frame.section_number" showname="Section number: 1" size="0" pos="0" show="1"/>
    <field name="frame.interface_id" showname="Interface id: 0 (lo0)" size="0" pos="0" show="0">
      <field name="frame.interface_name" showname="Interface name: lo0" size="0" pos="0" show="lo0"/>
      <field name="frame.interface_description" showname="Interface description: Loopback" size="0" pos="0" show="Loopback"/>
    </field>
    <field name="frame.encap_type" showname="Encapsulation type: NULL/Loopback (15)" size="0" pos="0" show="15"/>
    <field name="frame.time" showname="Arrival Time: Sep 14, 2026 06:56:24.059210000 MSK" size="0" pos="0" show="2026-09-14T06:56:24.059210000+0300"/>
    <field name="frame.time_utc" showname="UTC Arrival Time: Sep 14, 2026 03:56:24.059210000 UTC" size="0" pos="0" show="2026-09-14T03:56:24.059210000Z"/>
    <field name="frame.time_epoch" showname="Epoch Arrival Time: 1789358184.059210000" size="0" pos="0" show="1789358184.059210000"/>
    <field name="frame.offset_shift" showname="Time shift for this packet: 0.000000000 seconds" size="0" pos="0" show="0.000000000"/>
    <field name="frame.time_delta" showname="Time delta from previous captured frame: 42.000 microseconds" size="0" pos="0" show="0.000042000"/>
    <field name="frame.time_delta_displayed" showname="Time delta from previous displayed frame: 42.000 microseconds" size="0" pos="0" show="0.000042000"/>
    <field name="frame.time_relative" showname="Time since reference or first frame: 173.000 microseconds" size="0" pos="0" show="0.000173000"/>
    <field name="frame.number" showname="Frame Number: 3" size="0" pos="0" show="3"/>
    <field name="frame.len" showname="Frame Length: 56 bytes (448 bits)" size="0" pos="0" show="56"/>
    <field name="frame.cap_len" showname="Capture Length: 56 bytes (448 bits)" size="0" pos="0" show="56"/>
    <field name="frame.marked" showname="Frame is marked: False" size="0" pos="0" show="False"/>
    <field name="frame.ignored" showname="Frame is ignored: False" size="0" pos="0" show="False"/>
    <field name="frame.protocols" showname="Protocols in frame: null:ip:tcp" size="0" pos="0" show="null:ip:tcp"/>
    <field name="frame.encoding" showname="Character encoding: ASCII (0)" size="0" pos="0" show="0"/>
  </proto>
  <proto name="null" showname="Null/Loopback" size="4" pos="0">
    <field name="null.family" showname="Family: IP (2)" size="4" pos="0" show="2" value="02000000"/>
  </proto>
  <proto name="ip" showname="Internet Protocol Version 4, Src: 127.0.0.1, Dst: 127.0.0.1" size="20" pos="4">
    <field name="ip.version" showname="0100 .... = Version: 4" size="1" pos="4" show="4" value="45"/>
    <field name="ip.hdr_len" showname=".... 0101 = Header Length: 20 bytes (5)" size="1" pos="4" show="20" value="45"/>
    <field name="ip.dsfield" showname="Differentiated Services Field: 0x00 (DSCP: CS0, ECN: Not-ECT)" size="1" pos="5" show="0x00" value="00">
      <field name="ip.dsfield.dscp" showname="0000 00.. = Differentiated Services Codepoint: Default (0)" size="1" pos="5" show="0" value="0" unmaskedvalue="00"/>
      <field name="ip.dsfield.ecn" showname=".... ..00 = Explicit Congestion Notification: Not ECN-Capable Transport (0)" size="1" pos="5" show="0" value="0" unmaskedvalue="00"/>
    </field>
    <field name="ip.len" showname="Total Length: 52" size="2" pos="6" show="52" value="0034"/>
    <field name="ip.id" showname="Identification: 0x0000 (0)" size="2" pos="8" show="0x0000" value="0000"/>
    <field name="ip.flags" showname="010. .... = Flags: 0x2, Don&#x27;t fragment" size="1" pos="10" show="0x02" value="2" unmaskedvalue="40">
      <field name="ip.flags.rb" showname="0... .... = Reserved bit: Not set" size="1" pos="10" show="False" value="0" unmaskedvalue="40"/>
      <field name="ip.flags.df" showname=".1.. .... = Don&#x27;t fragment: Set" size="1" pos="10" show="True" value="1" unmaskedvalue="40"/>
      <field name="ip.flags.mf" showname="..0. .... = More fragments: Not set" size="1" pos="10" show="False" value="0" unmaskedvalue="40"/>
    </field>
    <field name="ip.frag_offset" showname="...0 0000 0000 0000 = Fragment Offset: 0" size="2" pos="10" show="0" value="0" unmaskedvalue="4000"/>
    <field name="ip.ttl" showname="Time to Live: 64" size="1" pos="12" show="64" value="40"/>
    <field name="ip.proto" showname="Protocol: TCP (6)" size="1" pos="13" show="6" value="06"/>
    <field name="ip.checksum" showname="Header Checksum: 0x0000 [validation disabled]" size="2" pos="14" show="0x0000" value="0000"/>
    <field name="ip.checksum.status" showname="Header checksum status: Unverified" size="0" pos="14" show="2"/>
    <field name="ip.src" showname="Source Address: 127.0.0.1" size="4" pos="16" show="127.0.0.1" value="7f000001"/>
    <field name="ip.addr" showname="Source or Destination Address: 127.0.0.1" hide="yes" size="4" pos="16" show="127.0.0.1" value="7f000001"/>
    <field name="ip.src_host" showname="Source Host: 127.0.0.1" hide="yes" size="4" pos="16" show="127.0.0.1" value="7f000001"/>
    <field name="ip.host" showname="Source or Destination Host: 127.0.0.1" hide="yes" size="4" pos="16" show="127.0.0.1" value="7f000001"/>
    <field name="ip.dst" showname="Destination Address: 127.0.0.1" size="4" pos="20" show="127.0.0.1" value="7f000001"/>
    <field name="ip.addr" showname="Source or Destination Address: 127.0.0.1" hide="yes" size="4" pos="20" show="127.0.0.1" value="7f000001"/>
    <field name="ip.dst_host" showname="Destination Host: 127.0.0.1" hide="yes" size="4" pos="20" show="127.0.0.1" value="7f000001"/>
    <field name="ip.host" showname="Source or Destination Host: 127.0.0.1" hide="yes" size="4" pos="20" show="127.0.0.1" value="7f000001"/>
    <field name="ip.stream" showname="Stream index: 0" size="0" pos="24" show="0"/>
  </proto>
  <proto name="tcp" showname="Transmission Control Protocol, Src Port: 56080, Dst Port: 18123, Seq: 1, Ack: 1, Len: 0" size="32" pos="24">
    <field name="tcp.srcport" showname="Source Port: 56080" size="2" pos="24" show="56080" value="db10"/>
    <field name="tcp.dstport" showname="Destination Port: 18123" size="2" pos="26" show="18123" value="46cb"/>
    <field name="tcp.port" showname="Source or Destination Port: 56080" hide="yes" size="2" pos="24" show="56080" value="db10"/>
    <field name="tcp.port" showname="Source or Destination Port: 18123" hide="yes" size="2" pos="26" show="18123" value="46cb"/>
    <field name="tcp.stream" showname="Stream index: 0" size="0" pos="24" show="0"/>
    <field name="tcp.stream.pnum" showname="Stream Packet Number: 3" size="0" pos="24" show="3"/>
    <field name="tcp.completeness" showname="Conversation completeness: Incomplete, CLIENT_ESTABLISHED (3)" size="0" pos="24" show="3">
      <field name="tcp.completeness.rst" showname="..0. .... = RST: Absent" size="0" pos="0" show="False"/>
      <field name="tcp.completeness.fin" showname="...0 .... = FIN: Absent" size="0" pos="0" show="False"/>
      <field name="tcp.completeness.data" showname=".... 0... = Data: Absent" size="0" pos="0" show="False"/>
      <field name="tcp.completeness.ack" showname=".... .0.. = ACK: Absent" size="0" pos="0" show="False"/>
      <field name="tcp.completeness.syn-ack" showname=".... ..1. = SYN-ACK: Present" size="0" pos="0" show="True"/>
      <field name="tcp.completeness.syn" showname=".... ...1 = SYN: Present" size="0" pos="0" show="True"/>
      <field name="tcp.completeness.str" showname="Completeness Flags: ····SS" size="0" pos="24" show="····SS"/>
    </field>
    <field name="tcp.len" showname="TCP Segment Len: 0" size="0" pos="24" show="0"/>
    <field name="tcp.seq" showname="Sequence Number: 1    (relative sequence number)" size="4" pos="28" show="1" value="34119807"/>
    <field name="tcp.seq_raw" showname="Sequence Number (raw): 873568263" size="4" pos="28" show="873568263" value="34119807"/>
    <field name="tcp.nxtseq" showname="Next Sequence Number: 1    (relative sequence number)" size="0" pos="24" show="1"/>
    <field name="tcp.ack" showname="Acknowledgment Number: 1    (relative ack number)" size="4" pos="32" show="1" value="a8ebad19"/>
    <field name="tcp.ack_raw" showname="Acknowledgment number (raw): 2834017561" size="4" pos="32" show="2834017561" value="a8ebad19"/>
    <field name="tcp.hdr_len" showname="1000 .... = Header Length: 32 bytes (8)" size="1" pos="36" show="32" value="80"/>
    <field name="tcp.flags" showname="Flags: 0x010 (ACK)" size="2" pos="36" show="0x0010" value="10" unmaskedvalue="8010">
      <field name="tcp.flags.res" showname="000. .... .... = Reserved: Not set" size="1" pos="36" show="False" value="0" unmaskedvalue="80"/>
      <field name="tcp.flags.ae" showname="...0 .... .... = Accurate ECN: Not set" size="1" pos="36" show="False" value="0" unmaskedvalue="80"/>
      <field name="tcp.flags.cwr" showname=".... 0... .... = Congestion Window Reduced: Not set" size="1" pos="37" show="False" value="0" unmaskedvalue="10"/>
      <field name="tcp.flags.ece" showname=".... .0.. .... = ECN-Echo: Not set" size="1" pos="37" show="False" value="0" unmaskedvalue="10"/>
      <field name="tcp.flags.urg" showname=".... ..0. .... = Urgent: Not set" size="1" pos="37" show="False" value="0" unmaskedvalue="10"/>
      <field name="tcp.flags.ack" showname=".... ...1 .... = Acknowledgment: Set" size="1" pos="37" show="True" value="1" unmaskedvalue="10"/>
      <field name="tcp.flags.push" showname=".... .... 0... = Push: Not set" size="1" pos="37" show="False" value="0" unmaskedvalue="10"/>
      <field name="tcp.flags.reset" showname=".... .... .0.. = Reset: Not set" size="1" pos="37" show="False" value="0" unmaskedvalue="10"/>
      <field name="tcp.flags.syn" showname=".... .... ..0. = Syn: Not set" size="1" pos="37" show="False" value="0" unmaskedvalue="10"/>
      <field name="tcp.flags.fin" showname=".... .... ...0 = Fin: Not set" size="1" pos="37" show="False" value="0" unmaskedvalue="10"/>
      <field name="tcp.flags.str" showname="TCP Flags: ·······A····" size="2" pos="36" show="·······A····" value="8010"/>
    </field>
    <field name="tcp.window_size_value" showname="Window: 6380" size="2" pos="38" show="6380" value="18ec"/>
    <field name="tcp.window_size" showname="Calculated window size: 408320" size="2" pos="38" show="408320" value="18ec"/>
    <field name="tcp.window_size_scalefactor" showname="Window size scaling factor: 64" size="2" pos="38" show="64" value="18ec"/>
    <field name="tcp.checksum" showname="Checksum: 0xfe28 [unverified]" size="2" pos="40" show="0xfe28" value="fe28"/>
    <field name="tcp.checksum.status" showname="Checksum Status: Unverified" size="0" pos="40" show="2"/>
    <field name="tcp.urgent_pointer" showname="Urgent Pointer: 0" size="2" pos="42" show="0" value="0000"/>
    <field name="tcp.options" showname="Options: (12 bytes), No-Operation (NOP), No-Operation (NOP), Timestamps" size="12" pos="44" show="01:01:08:0a:87:12:aa:50:94:78:ca:cc" value="0101080a8712aa509478cacc">
      <field name="tcp.options.nop" showname="TCP Option - No-Operation (NOP)" size="1" pos="44" show="01" value="01">
        <field name="tcp.option_kind" showname="Kind: No-Operation (1)" size="1" pos="44" show="1" value="01"/>
      </field>
      <field name="tcp.options.nop" showname="TCP Option - No-Operation (NOP)" size="1" pos="45" show="01" value="01">
        <field name="tcp.option_kind" showname="Kind: No-Operation (1)" size="1" pos="45" show="1" value="01"/>
      </field>
      <field name="tcp.options.timestamp" showname="TCP Option - Timestamps: TSval 2266147408, TSecr 2490944204" size="10" pos="46" show="08:0a:87:12:aa:50:94:78:ca:cc" value="080a8712aa509478cacc">
        <field name="tcp.option_kind" showname="Kind: Time Stamp Option (8)" size="1" pos="46" show="8" value="08"/>
        <field name="tcp.option_len" showname="Length: 10" size="1" pos="47" show="10" value="0a"/>
        <field name="tcp.options.timestamp.tsval" showname="Timestamp value: 2266147408" size="4" pos="48" show="2266147408" value="8712aa50"/>
        <field name="tcp.options.timestamp.tsecr" showname="Timestamp echo reply: 2490944204" size="4" pos="52" show="2490944204" value="9478cacc"/>
      </field>
    </field>
    <field name="" show="Timestamps" size="0" pos="24">
      <field name="tcp.time_relative" showname="Time since first frame in this TCP stream: 173.000 microseconds" size="0" pos="24" show="0.000173000"/>
      <field name="tcp.time_delta" showname="Time since previous frame in this TCP stream: 42.000 microseconds" size="0" pos="24" show="0.000042000"/>
    </field>
    <field name="tcp.analysis" showname="SEQ/ACK analysis" size="0" pos="24" show="" value="">
      <field name="tcp.analysis.acks_frame" showname="This is an ACK to the segment in frame: 2" size="0" pos="24" show="2"/>
      <field name="tcp.analysis.ack_rtt" showname="The RTT to ACK the segment was: 42.000 microseconds" size="0" pos="24" show="0.000042000"/>
      <field name="tcp.analysis.initial_rtt" showname="iRTT: 173.000 microseconds" size="0" pos="24" show="0.000173000"/>
    </field>
    <field name="tcp.stream.client.contiguity_count" showname="Client Contiguous Streams: 1" size="0" pos="24" show="1"/>
    <field name="tcp.stream.server.contiguity_count" showname="Server Contiguous Streams: 1" size="0" pos="24" show="1"/>
  </proto>
</packet>


<packet>
  <proto name="geninfo" pos="0" showname="General information" size="296">
    <field name="num" pos="0" show="4" showname="Number" value="4" size="296"/>
    <field name="len" pos="0" show="296" showname="Frame Length" value="128" size="296"/>
    <field name="caplen" pos="0" show="296" showname="Captured Length" value="128" size="296"/>
    <field name="timestamp" pos="0" show="Sep 14, 2026 06:56:24.059236000 MSK" showname="Captured Time" value="1789358184.059236000" size="296"/>
  </proto>
  <proto name="frame" showname="Frame 4: Packet, 296 bytes on wire (2368 bits), 296 bytes captured (2368 bits) on interface lo0, id 0" size="296" pos="0">
    <field name="frame.section_number" showname="Section number: 1" size="0" pos="0" show="1"/>
    <field name="frame.interface_id" showname="Interface id: 0 (lo0)" size="0" pos="0" show="0">
      <field name="frame.interface_name" showname="Interface name: lo0" size="0" pos="0" show="lo0"/>
      <field name="frame.interface_description" showname="Interface description: Loopback" size="0" pos="0" show="Loopback"/>
    </field>
    <field name="frame.encap_type" showname="Encapsulation type: NULL/Loopback (15)" size="0" pos="0" show="15"/>
    <field name="frame.time" showname="Arrival Time: Sep 14, 2026 06:56:24.059236000 MSK" size="0" pos="0" show="2026-09-14T06:56:24.059236000+0300"/>
    <field name="frame.time_utc" showname="UTC Arrival Time: Sep 14, 2026 03:56:24.059236000 UTC" size="0" pos="0" show="2026-09-14T03:56:24.059236000Z"/>
    <field name="frame.time_epoch" showname="Epoch Arrival Time: 1789358184.059236000" size="0" pos="0" show="1789358184.059236000"/>
    <field name="frame.offset_shift" showname="Time shift for this packet: 0.000000000 seconds" size="0" pos="0" show="0.000000000"/>
    <field name="frame.time_delta" showname="Time delta from previous captured frame: 26.000 microseconds" size="0" pos="0" show="0.000026000"/>
    <field name="frame.time_delta_displayed" showname="Time delta from previous displayed frame: 26.000 microseconds" size="0" pos="0" show="0.000026000"/>
    <field name="frame.time_relative" showname="Time since reference or first frame: 199.000 microseconds" size="0" pos="0" show="0.000199000"/>
    <field name="frame.number" showname="Frame Number: 4" size="0" pos="0" show="4"/>
    <field name="frame.len" showname="Frame Length: 296 bytes (2368 bits)" size="0" pos="0" show="296"/>
    <field name="frame.cap_len" showname="Capture Length: 296 bytes (2368 bits)" size="0" pos="0" show="296"/>
    <field name="frame.marked" showname="Frame is marked: False" size="0" pos="0" show="False"/>
    <field name="frame.ignored" showname="Frame is ignored: False" size="0" pos="0" show="False"/>
    <field name="frame.protocols" showname="Protocols in frame: null:ip:tcp" size="0" pos="0" show="null:ip:tcp"/>
    <field name="frame.encoding" showname="Character encoding: ASCII (0)" size="0" pos="0" show="0"/>
  </proto>
  <proto name="null" showname="Null/Loopback" size="4" pos="0">
    <field name="null.family" showname="Family: IP (2)" size="4" pos="0" show="2" value="02000000"/>
  </proto>
  <proto name="ip" showname="Internet Protocol Version 4, Src: 127.0.0.1, Dst: 127.0.0.1" size="20" pos="4">
    <field name="ip.version" showname="0100 .... = Version: 4" size="1" pos="4" show="4" value="45"/>
    <field name="ip.hdr_len" showname=".... 0101 = Header Length: 20 bytes (5)" size="1" pos="4" show="20" value="45"/>
    <field name="ip.dsfield" showname="Differentiated Services Field: 0x00 (DSCP: CS0, ECN: Not-ECT)" size="1" pos="5" show="0x00" value="00">
      <field name="ip.dsfield.dscp" showname="0000 00.. = Differentiated Services Codepoint: Default (0)" size="1" pos="5" show="0" value="0" unmaskedvalue="00"/>
      <field name="ip.dsfield.ecn" showname=".... ..00 = Explicit Congestion Notification: Not ECN-Capable Transport (0)" size="1" pos="5" show="0" value="0" unmaskedvalue="00"/>
    </field>
    <field name="ip.len" showname="Total Length: 292" size="2" pos="6" show="292" value="0124"/>
    <field name="ip.id" showname="Identification: 0x0000 (0)" size="2" pos="8" show="0x0000" value="0000"/>
    <field name="ip.flags" showname="010. .... = Flags: 0x2, Don&#x27;t fragment" size="1" pos="10" show="0x02" value="2" unmaskedvalue="40">
      <field name="ip.flags.rb" showname="0... .... = Reserved bit: Not set" size="1" pos="10" show="False" value="0" unmaskedvalue="40"/>
      <field name="ip.flags.df" showname=".1.. .... = Don&#x27;t fragment: Set" size="1" pos="10" show="True" value="1" unmaskedvalue="40"/>
      <field name="ip.flags.mf" showname="..0. .... = More fragments: Not set" size="1" pos="10" show="False" value="0" unmaskedvalue="40"/>
    </field>
    <field name="ip.frag_offset" showname="...0 0000 0000 0000 = Fragment Offset: 0" size="2" pos="10" show="0" value="0" unmaskedvalue="4000"/>
    <field name="ip.ttl" showname="Time to Live: 64" size="1" pos="12" show="64" value="40"/>
    <field name="ip.proto" showname="Protocol: TCP (6)" size="1" pos="13" show="6" value="06"/>
    <field name="ip.checksum" showname="Header Checksum: 0x0000 [validation disabled]" size="2" pos="14" show="0x0000" value="0000"/>
    <field name="ip.checksum.status" showname="Header checksum status: Unverified" size="0" pos="14" show="2"/>
    <field name="ip.src" showname="Source Address: 127.0.0.1" size="4" pos="16" show="127.0.0.1" value="7f000001"/>
    <field name="ip.addr" showname="Source or Destination Address: 127.0.0.1" hide="yes" size="4" pos="16" show="127.0.0.1" value="7f000001"/>
    <field name="ip.src_host" showname="Source Host: 127.0.0.1" hide="yes" size="4" pos="16" show="127.0.0.1" value="7f000001"/>
    <field name="ip.host" showname="Source or Destination Host: 127.0.0.1" hide="yes" size="4" pos="16" show="127.0.0.1" value="7f000001"/>
    <field name="ip.dst" showname="Destination Address: 127.0.0.1" size="4" pos="20" show="127.0.0.1" value="7f000001"/>
    <field name="ip.addr" showname="Source or Destination Address: 127.0.0.1" hide="yes" size="4" pos="20" show="127.0.0.1" value="7f000001"/>
    <field name="ip.dst_host" showname="Destination Host: 127.0.0.1" hide="yes" size="4" pos="20" show="127.0.0.1" value="7f000001"/>
    <field name="ip.host" showname="Source or Destination Host: 127.0.0.1" hide="yes" size="4" pos="20" show="127.0.0.1" value="7f000001"/>
    <field name="ip.stream" showname="Stream index: 0" size="0" pos="24" show="0"/>
  </proto>
  <proto name="tcp" showname="Transmission Control Protocol, Src Port: 56080, Dst Port: 18123, Seq: 1, Ack: 1, Len: 240" size="32" pos="24">
    <field name="tcp.srcport" showname="Source Port: 56080" size="2" pos="24" show="56080" value="db10"/>
    <field name="tcp.dstport" showname="Destination Port: 18123" size="2" pos="26" show="18123" value="46cb"/>
    <field name="tcp.port" showname="Source or Destination Port: 56080" hide="yes" size="2" pos="24" show="56080" value="db10"/>
    <field name="tcp.port" showname="Source or Destination Port: 18123" hide="yes" size="2" pos="26" show="18123" value="46cb"/>
    <field name="tcp.stream" showname="Stream index: 0" size="0" pos="24" show="0"/>
    <field name="tcp.stream.pnum" showname="Stream Packet Number: 4" size="0" pos="24" show="4"/>
    <field name="tcp.completeness" showname="Conversation completeness: Incomplete, ESTABLISHED (7)" size="0" pos="24" show="7">
      <field name="tcp.completeness.rst" showname="..0. .... = RST: Absent" size="0" pos="0" show="False"/>
      <field name="tcp.completeness.fin" showname="...0 .... = FIN: Absent" size="0" pos="0" show="False"/>
      <field name="tcp.completeness.data" showname=".... 0... = Data: Absent" size="0" pos="0" show="False"/>
      <field name="tcp.completeness.ack" showname=".... .1.. = ACK: Present" size="0" pos="0" show="True"/>
      <field name="tcp.completeness.syn-ack" showname=".... ..1. = SYN-ACK: Present" size="0" pos="0" show="True"/>
      <field name="tcp.completeness.syn" showname=".... ...1 = SYN: Present" size="0" pos="0" show="True"/>
      <field name="tcp.completeness.str" showname="Completeness Flags: ···ASS" size="0" pos="24" show="···ASS"/>
    </field>
    <field name="tcp.len" showname="TCP Segment Len: 240" size="0" pos="24" show="240"/>
    <field name="tcp.seq" showname="Sequence Number: 1    (relative sequence number)" size="4" pos="28" show="1" value="34119807"/>
    <field name="tcp.seq_raw" showname="Sequence Number (raw): 873568263" size="4" pos="28" show="873568263" value="34119807"/>
    <field name="tcp.nxtseq" showname="Next Sequence Number: 241    (relative sequence number)" size="0" pos="24" show="241"/>
    <field name="tcp.ack" showname="Acknowledgment Number: 1    (relative ack number)" size="4" pos="32" show="1" value="a8ebad19"/>
    <field name="tcp.ack_raw" showname="Acknowledgment number (raw): 2834017561" size="4" pos="32" show="2834017561" value="a8ebad19"/>
    <field name="tcp.hdr_len" showname="1000 .... = Header Length: 32 bytes (8)" size="1" pos="36" show="32" value="80"/>
    <field name="tcp.flags" showname="Flags: 0x018 (PSH, ACK)" size="2" pos="36" show="0x0018" value="18" unmaskedvalue="8018">
      <field name="tcp.flags.res" showname="000. .... .... = Reserved: Not set" size="1" pos="36" show="False" value="0" unmaskedvalue="80"/>
      <field name="tcp.flags.ae" showname="...0 .... .... = Accurate ECN: Not set" size="1" pos="36" show="False" value="0" unmaskedvalue="80"/>
      <field name="tcp.flags.cwr" showname=".... 0... .... = Congestion Window Reduced: Not set" size="1" pos="37" show="False" value="0" unmaskedvalue="18"/>
      <field name="tcp.flags.ece" showname=".... .0.. .... = ECN-Echo: Not set" size="1" pos="37" show="False" value="0" unmaskedvalue="18"/>
      <field name="tcp.flags.urg" showname=".... ..0. .... = Urgent: Not set" size="1" pos="37" show="False" value="0" unmaskedvalue="18"/>
      <field name="tcp.flags.ack" showname=".... ...1 .... = Acknowledgment: Set" size="1" pos="37" show="True" value="1" unmaskedvalue="18"/>
      <field name="tcp.flags.push" showname=".... .... 1... = Push: Set" size="1" pos="37" show="True" value="1" unmaskedvalue="18"/>
      <field name="tcp.flags.reset" showname=".... .... .0.. = Reset: Not set" size="1" pos="37" show="False" value="0" unmaskedvalue="18"/>
      <field name="tcp.flags.syn" showname=".... .... ..0. = Syn: Not set" size="1" pos="37" show="False" value="0" unmaskedvalue="18"/>
      <field name="tcp.flags.fin" showname=".... .... ...0 = Fin: Not set" size="1" pos="37" show="False" value="0" unmaskedvalue="18"/>
      <field name="tcp.flags.str" showname="TCP Flags: ·······AP···" size="2" pos="36" show="·······AP···" value="8018"/>
    </field>
    <field name="tcp.window_size_value" showname="Window: 6380" size="2" pos="38" show="6380" value="18ec"/>
    <field name="tcp.window_size" showname="Calculated window size: 408320" size="2" pos="38" show="408320" value="18ec"/>
    <field name="tcp.window_size_scalefactor" showname="Window size scaling factor: 64" size="2" pos="38" show="64" value="18ec"/>
    <field name="tcp.checksum" showname="Checksum: 0xff18 [unverified]" size="2" pos="40" show="0xff18" value="ff18"/>
    <field name="tcp.checksum.status" showname="Checksum Status: Unverified" size="0" pos="40" show="2"/>
    <field name="tcp.urgent_pointer" showname="Urgent Pointer: 0" size="2" pos="42" show="0" value="0000"/>
    <field name="tcp.options" showname="Options: (12 bytes), No-Operation (NOP), No-Operation (NOP), Timestamps" size="12" pos="44" show="01:01:08:0a:87:12:aa:50:94:78:ca:cc" value="0101080a8712aa509478cacc">
      <field name="tcp.options.nop" showname="TCP Option - No-Operation (NOP)" size="1" pos="44" show="01" value="01">
        <field name="tcp.option_kind" showname="Kind: No-Operation (1)" size="1" pos="44" show="1" value="01"/>
      </field>
      <field name="tcp.options.nop" showname="TCP Option - No-Operation (NOP)" size="1" pos="45" show="01" value="01">
        <field name="tcp.option_kind" showname="Kind: No-Operation (1)" size="1" pos="45" show="1" value="01"/>
      </field>
      <field name="tcp.options.timestamp" showname="TCP Option - Timestamps: TSval 2266147408, TSecr 2490944204" size="10" pos="46" show="08:0a:87:12:aa:50:94:78:ca:cc" value="080a8712aa509478cacc">
        <field name="tcp.option_kind" showname="Kind: Time Stamp Option (8)" size="1" pos="46" show="8" value="08"/>
        <field name="tcp.option_len" showname="Length: 10" size="1" pos="47" show="10" value="0a"/>
        <field name="tcp.options.timestamp.tsval" showname="Timestamp value: 2266147408" size="4" pos="48" show="2266147408" value="8712aa50"/>
        <field name="tcp.options.timestamp.tsecr" showname="Timestamp echo reply: 2490944204" size="4" pos="52" show="2490944204" value="9478cacc"/>
      </field>
    </field>
    <field name="" show="Timestamps" size="0" pos="24">
      <field name="tcp.time_relative" showname="Time since first frame in this TCP stream: 199.000 microseconds" size="0" pos="24" show="0.000199000"/>
      <field name="tcp.time_delta" showname="Time since previous frame in this TCP stream: 26.000 microseconds" size="0" pos="24" show="0.000026000"/>
    </field>
    <field name="tcp.analysis" showname="SEQ/ACK analysis" size="0" pos="24" show="" value="">
      <field name="tcp.analysis.initial_rtt" showname="iRTT: 173.000 microseconds" size="0" pos="24" show="0.000173000"/>
      <field name="tcp.analysis.bytes_in_flight" showname="Bytes in flight: 240" size="0" pos="24" show="240"/>
      <field name="tcp.analysis.push_bytes_sent" showname="Bytes sent since last PSH flag: 240" size="0" pos="24" show="240"/>
    </field>
    <field name="tcp.stream.client.contiguity_count" showname="Client Contiguous Streams: 1" size="0" pos="24" show="1"/>
    <field name="tcp.stream.server.contiguity_count" showname="Server Contiguous Streams: 1" size="0" pos="24" show="1"/>
    <field name="tcp.payload" showname="TCP payload (240 bytes)" size="240" pos="56" show="50:4f:53:54:20:2f:3f:65:6e:61:62:6c:65:5f:68:74:74:70:5f:63:6f:6d:70:72:65:73:73:69:6f:6e:3d:30:20:48:54:54:50:2f:31:2e:31:0d:0a:48:6f:73:74:3a:20:31:32:37:2e:30:2e:30:2e:31:3a:31:38:31:32:33:0d:0a:55:73:65:72:2d:41:67:65:6e:74:3a:20:70:79:74:68:6f:6e:2d:72:65:71:75:65:73:74:73:2f:32:2e:33:34:2e:32:0d:0a:41:63:63:65:70:74:2d:45:6e:63:6f:64:69:6e:67:3a:20:67:7a:69:70:2c:20:64:65:66:6c:61:74:65:0d:0a:41:63:63:65:70:74:3a:20:2a:2f:2a:0d:0a:43:6f:6e:6e:65:63:74:69:6f:6e:3a:20:6b:65:65:70:2d:61:6c:69:76:65:0d:0a:43:6f:6e:74:65:6e:74:2d:4c:65:6e:67:74:68:3a:20:38:32:0d:0a:41:75:74:68:6f:72:69:7a:61:74:69:6f:6e:3a:20:42:61:73:69:63:20:64:32:39:79:61:33:4e:6f:62:33:41:36:64:32:39:79:61:33:4e:6f:62:33:41:3d:0d:0a:0d:0a" value="504f5354202f3f656e61626c655f687474705f636f6d7072657373696f6e3d3020485454502f312e310d0a486f73743a203132372e302e302e313a31383132330d0a557365722d4167656e743a20707974686f6e2d72657175657374732f322e33342e320d0a4163636570742d456e636f64696e673a20677a69702c206465666c6174650d0a4163636570743a202a2f2a0d0a436f6e6e656374696f6e3a206b6565702d616c6976650d0a436f6e74656e742d4c656e6774683a2038320d0a417574686f72697a6174696f6e3a204261736963206432397961334e6f623341366432397961334e6f6233413d0d0a0d0a"/>
    <field name="tcp.segment_data" showname="TCP segment data (240 bytes)" size="240" pos="56" show="50:4f:53:54:20:2f:3f:65:6e:61:62:6c:65:5f:68:74:74:70:5f:63:6f:6d:70:72:65:73:73:69:6f:6e:3d:30:20:48:54:54:50:2f:31:2e:31:0d:0a:48:6f:73:74:3a:20:31:32:37:2e:30:2e:30:2e:31:3a:31:38:31:32:33:0d:0a:55:73:65:72:2d:41:67:65:6e:74:3a:20:70:79:74:68:6f:6e:2d:72:65:71:75:65:73:74:73:2f:32:2e:33:34:2e:32:0d:0a:41:63:63:65:70:74:2d:45:6e:63:6f:64:69:6e:67:3a:20:67:7a:69:70:2c:20:64:65:66:6c:61:74:65:0d:0a:41:63:63:65:70:74:3a:20:2a:2f:2a:0d:0a:43:6f:6e:6e:65:63:74:69:6f:6e:3a:20:6b:65:65:70:2d:61:6c:69:76:65:0d:0a:43:6f:6e:74:65:6e:74:2d:4c:65:6e:67:74:68:3a:20:38:32:0d:0a:41:75:74:68:6f:72:69:7a:61:74:69:6f:6e:3a:20:42:61:73:69:63:20:64:32:39:79:61:33:4e:6f:62:33:41:36:64:32:39:79:61:33:4e:6f:62:33:41:3d:0d:0a:0d:0a" value="504f5354202f3f656e61626c655f687474705f636f6d7072657373696f6e3d3020485454502f312e310d0a486f73743a203132372e302e302e313a31383132330d0a557365722d4167656e743a20707974686f6e2d72657175657374732f322e33342e320d0a4163636570742d456e636f64696e673a20677a69702c206465666c6174650d0a4163636570743a202a2f2a0d0a436f6e6e656374696f6e3a206b6565702d616c6976650d0a436f6e74656e742d4c656e6774683a2038320d0a417574686f72697a6174696f6e3a204261736963206432397961334e6f623341366432397961334e6f6233413d0d0a0d0a"/>
  </proto>
</packet>


<packet>
  <proto name="geninfo" pos="0" showname="General information" size="56">
    <field name="num" pos="0" show="5" showname="Number" value="5" size="56"/>
    <field name="len" pos="0" show="56" showname="Frame Length" value="38" size="56"/>
    <field name="caplen" pos="0" show="56" showname="Captured Length" value="38" size="56"/>
    <field name="timestamp" pos="0" show="Sep 14, 2026 06:56:24.059240000 MSK" showname="Captured Time" value="1789358184.059240000" size="56"/>
  </proto>
  <proto name="frame" showname="Frame 5: Packet, 56 bytes on wire (448 bits), 56 bytes captured (448 bits) on interface lo0, id 0" size="56" pos="0">
    <field name="frame.section_number" showname="Section number: 1" size="0" pos="0" show="1"/>
    <field name="frame.interface_id" showname="Interface id: 0 (lo0)" size="0" pos="0" show="0">
      <field name="frame.interface_name" showname="Interface name: lo0" size="0" pos="0" show="lo0"/>
      <field name="frame.interface_description" showname="Interface description: Loopback" size="0" pos="0" show="Loopback"/>
    </field>
    <field name="frame.encap_type" showname="Encapsulation type: NULL/Loopback (15)" size="0" pos="0" show="15"/>
    <field name="frame.time" showname="Arrival Time: Sep 14, 2026 06:56:24.059240000 MSK" size="0" pos="0" show="2026-09-14T06:56:24.059240000+0300"/>
    <field name="frame.time_utc" showname="UTC Arrival Time: Sep 14, 2026 03:56:24.059240000 UTC" size="0" pos="0" show="2026-09-14T03:56:24.059240000Z"/>
    <field name="frame.time_epoch" showname="Epoch Arrival Time: 1789358184.059240000" size="0" pos="0" show="1789358184.059240000"/>
    <field name="frame.offset_shift" showname="Time shift for this packet: 0.000000000 seconds" size="0" pos="0" show="0.000000000"/>
    <field name="frame.time_delta" showname="Time delta from previous captured frame: 4.000 microseconds" size="0" pos="0" show="0.000004000"/>
    <field name="frame.time_delta_displayed" showname="Time delta from previous displayed frame: 4.000 microseconds" size="0" pos="0" show="0.000004000"/>
    <field name="frame.time_relative" showname="Time since reference or first frame: 203.000 microseconds" size="0" pos="0" show="0.000203000"/>
    <field name="frame.number" showname="Frame Number: 5" size="0" pos="0" show="5"/>
    <field name="frame.len" showname="Frame Length: 56 bytes (448 bits)" size="0" pos="0" show="56"/>
    <field name="frame.cap_len" showname="Capture Length: 56 bytes (448 bits)" size="0" pos="0" show="56"/>
    <field name="frame.marked" showname="Frame is marked: False" size="0" pos="0" show="False"/>
    <field name="frame.ignored" showname="Frame is ignored: False" size="0" pos="0" show="False"/>
    <field name="frame.protocols" showname="Protocols in frame: null:ip:tcp" size="0" pos="0" show="null:ip:tcp"/>
    <field name="frame.encoding" showname="Character encoding: ASCII (0)" size="0" pos="0" show="0"/>
  </proto>
  <proto name="null" showname="Null/Loopback" size="4" pos="0">
    <field name="null.family" showname="Family: IP (2)" size="4" pos="0" show="2" value="02000000"/>
  </proto>
  <proto name="ip" showname="Internet Protocol Version 4, Src: 127.0.0.1, Dst: 127.0.0.1" size="20" pos="4">
    <field name="ip.version" showname="0100 .... = Version: 4" size="1" pos="4" show="4" value="45"/>
    <field name="ip.hdr_len" showname=".... 0101 = Header Length: 20 bytes (5)" size="1" pos="4" show="20" value="45"/>
    <field name="ip.dsfield" showname="Differentiated Services Field: 0x00 (DSCP: CS0, ECN: Not-ECT)" size="1" pos="5" show="0x00" value="00">
      <field name="ip.dsfield.dscp" showname="0000 00.. = Differentiated Services Codepoint: Default (0)" size="1" pos="5" show="0" value="0" unmaskedvalue="00"/>
      <field name="ip.dsfield.ecn" showname=".... ..00 = Explicit Congestion Notification: Not ECN-Capable Transport (0)" size="1" pos="5" show="0" value="0" unmaskedvalue="00"/>
    </field>
    <field name="ip.len" showname="Total Length: 52" size="2" pos="6" show="52" value="0034"/>
    <field name="ip.id" showname="Identification: 0x0000 (0)" size="2" pos="8" show="0x0000" value="0000"/>
    <field name="ip.flags" showname="010. .... = Flags: 0x2, Don&#x27;t fragment" size="1" pos="10" show="0x02" value="2" unmaskedvalue="40">
      <field name="ip.flags.rb" showname="0... .... = Reserved bit: Not set" size="1" pos="10" show="False" value="0" unmaskedvalue="40"/>
      <field name="ip.flags.df" showname=".1.. .... = Don&#x27;t fragment: Set" size="1" pos="10" show="True" value="1" unmaskedvalue="40"/>
      <field name="ip.flags.mf" showname="..0. .... = More fragments: Not set" size="1" pos="10" show="False" value="0" unmaskedvalue="40"/>
    </field>
    <field name="ip.frag_offset" showname="...0 0000 0000 0000 = Fragment Offset: 0" size="2" pos="10" show="0" value="0" unmaskedvalue="4000"/>
    <field name="ip.ttl" showname="Time to Live: 64" size="1" pos="12" show="64" value="40"/>
    <field name="ip.proto" showname="Protocol: TCP (6)" size="1" pos="13" show="6" value="06"/>
    <field name="ip.checksum" showname="Header Checksum: 0x0000 [validation disabled]" size="2" pos="14" show="0x0000" value="0000"/>
    <field name="ip.checksum.status" showname="Header checksum status: Unverified" size="0" pos="14" show="2"/>
    <field name="ip.src" showname="Source Address: 127.0.0.1" size="4" pos="16" show="127.0.0.1" value="7f000001"/>
    <field name="ip.addr" showname="Source or Destination Address: 127.0.0.1" hide="yes" size="4" pos="16" show="127.0.0.1" value="7f000001"/>
    <field name="ip.src_host" showname="Source Host: 127.0.0.1" hide="yes" size="4" pos="16" show="127.0.0.1" value="7f000001"/>
    <field name="ip.host" showname="Source or Destination Host: 127.0.0.1" hide="yes" size="4" pos="16" show="127.0.0.1" value="7f000001"/>
    <field name="ip.dst" showname="Destination Address: 127.0.0.1" size="4" pos="20" show="127.0.0.1" value="7f000001"/>
    <field name="ip.addr" showname="Source or Destination Address: 127.0.0.1" hide="yes" size="4" pos="20" show="127.0.0.1" value="7f000001"/>
    <field name="ip.dst_host" showname="Destination Host: 127.0.0.1" hide="yes" size="4" pos="20" show="127.0.0.1" value="7f000001"/>
    <field name="ip.host" showname="Source or Destination Host: 127.0.0.1" hide="yes" size="4" pos="20" show="127.0.0.1" value="7f000001"/>
    <field name="ip.stream" showname="Stream index: 0" size="0" pos="24" show="0"/>
  </proto>
  <proto name="tcp" showname="Transmission Control Protocol, Src Port: 18123, Dst Port: 56080, Seq: 1, Ack: 1, Len: 0" size="32" pos="24">
    <field name="tcp.srcport" showname="Source Port: 18123" size="2" pos="24" show="18123" value="46cb"/>
    <field name="tcp.dstport" showname="Destination Port: 56080" size="2" pos="26" show="56080" value="db10"/>
    <field name="tcp.port" showname="Source or Destination Port: 18123" hide="yes" size="2" pos="24" show="18123" value="46cb"/>
    <field name="tcp.port" showname="Source or Destination Port: 56080" hide="yes" size="2" pos="26" show="56080" value="db10"/>
    <field name="tcp.stream" showname="Stream index: 0" size="0" pos="24" show="0"/>
    <field name="tcp.stream.pnum" showname="Stream Packet Number: 5" size="0" pos="24" show="5"/>
    <field name="tcp.completeness" showname="Conversation completeness: Incomplete, DATA (15)" size="0" pos="24" show="15">
      <field name="tcp.completeness.rst" showname="..0. .... = RST: Absent" size="0" pos="0" show="False"/>
      <field name="tcp.completeness.fin" showname="...0 .... = FIN: Absent" size="0" pos="0" show="False"/>
      <field name="tcp.completeness.data" showname=".... 1... = Data: Present" size="0" pos="0" show="True"/>
      <field name="tcp.completeness.ack" showname=".... .1.. = ACK: Present" size="0" pos="0" show="True"/>
      <field name="tcp.completeness.syn-ack" showname=".... ..1. = SYN-ACK: Present" size="0" pos="0" show="True"/>
      <field name="tcp.completeness.syn" showname=".... ...1 = SYN: Present" size="0" pos="0" show="True"/>
      <field name="tcp.completeness.str" showname="Completeness Flags: ··DASS" size="0" pos="24" show="··DASS"/>
    </field>
    <field name="tcp.len" showname="TCP Segment Len: 0" size="0" pos="24" show="0"/>
    <field name="tcp.seq" showname="Sequence Number: 1    (relative sequence number)" size="4" pos="28" show="1" value="a8ebad19"/>
    <field name="tcp.seq_raw" showname="Sequence Number (raw): 2834017561" size="4" pos="28" show="2834017561" value="a8ebad19"/>
    <field name="tcp.nxtseq" showname="Next Sequence Number: 1    (relative sequence number)" size="0" pos="24" show="1"/>
    <field name="tcp.ack" showname="Acknowledgment Number: 1    (relative ack number)" size="4" pos="32" show="1" value="34119807"/>
    <field name="tcp.ack_raw" showname="Acknowledgment number (raw): 873568263" size="4" pos="32" show="873568263" value="34119807"/>
    <field name="tcp.hdr_len" showname="1000 .... = Header Length: 32 bytes (8)" size="1" pos="36" show="32" value="80"/>
    <field name="tcp.flags" showname="Flags: 0x010 (ACK)" size="2" pos="36" show="0x0010" value="10" unmaskedvalue="8010">
      <field name="tcp.flags.res" showname="000. .... .... = Reserved: Not set" size="1" pos="36" show="False" value="0" unmaskedvalue="80"/>
      <field name="tcp.flags.ae" showname="...0 .... .... = Accurate ECN: Not set" size="1" pos="36" show="False" value="0" unmaskedvalue="80"/>
      <field name="tcp.flags.cwr" showname=".... 0... .... = Congestion Window Reduced: Not set" size="1" pos="37" show="False" value="0" unmaskedvalue="10"/>
      <field name="tcp.flags.ece" showname=".... .0.. .... = ECN-Echo: Not set" size="1" pos="37" show="False" value="0" unmaskedvalue="10"/>
      <field name="tcp.flags.urg" showname=".... ..0. .... = Urgent: Not set" size="1" pos="37" show="False" value="0" unmaskedvalue="10"/>
      <field name="tcp.flags.ack" showname=".... ...1 .... = Acknowledgment: Set" size="1" pos="37" show="True" value="1" unmaskedvalue="10"/>
      <field name="tcp.flags.push" showname=".... .... 0... = Push: Not set" size="1" pos="37" show="False" value="0" unmaskedvalue="10"/>
      <field name="tcp.flags.reset" showname=".... .... .0.. = Reset: Not set" size="1" pos="37" show="False" value="0" unmaskedvalue="10"/>
      <field name="tcp.flags.syn" showname=".... .... ..0. = Syn: Not set" size="1" pos="37" show="False" value="0" unmaskedvalue="10"/>
      <field name="tcp.flags.fin" showname=".... .... ...0 = Fin: Not set" size="1" pos="37" show="False" value="0" unmaskedvalue="10"/>
      <field name="tcp.flags.str" showname="TCP Flags: ·······A····" size="2" pos="36" show="·······A····" value="8010"/>
    </field>
    <field name="tcp.window_size_value" showname="Window: 6380" size="2" pos="38" show="6380" value="18ec"/>
    <field name="tcp.window_size" showname="Calculated window size: 408320" size="2" pos="38" show="408320" value="18ec"/>
    <field name="tcp.window_size_scalefactor" showname="Window size scaling factor: 64" size="2" pos="38" show="64" value="18ec"/>
    <field name="tcp.checksum" showname="Checksum: 0xfe28 [unverified]" size="2" pos="40" show="0xfe28" value="fe28"/>
    <field name="tcp.checksum.status" showname="Checksum Status: Unverified" size="0" pos="40" show="2"/>
    <field name="tcp.urgent_pointer" showname="Urgent Pointer: 0" size="2" pos="42" show="0" value="0000"/>
    <field name="tcp.options" showname="Options: (12 bytes), No-Operation (NOP), No-Operation (NOP), Timestamps" size="12" pos="44" show="01:01:08:0a:94:78:ca:cc:87:12:aa:50" value="0101080a9478cacc8712aa50">
      <field name="tcp.options.nop" showname="TCP Option - No-Operation (NOP)" size="1" pos="44" show="01" value="01">
        <field name="tcp.option_kind" showname="Kind: No-Operation (1)" size="1" pos="44" show="1" value="01"/>
      </field>
      <field name="tcp.options.nop" showname="TCP Option - No-Operation (NOP)" size="1" pos="45" show="01" value="01">
        <field name="tcp.option_kind" showname="Kind: No-Operation (1)" size="1" pos="45" show="1" value="01"/>
      </field>
      <field name="tcp.options.timestamp" showname="TCP Option - Timestamps: TSval 2490944204, TSecr 2266147408" size="10" pos="46" show="08:0a:94:78:ca:cc:87:12:aa:50" value="080a9478cacc8712aa50">
        <field name="tcp.option_kind" showname="Kind: Time Stamp Option (8)" size="1" pos="46" show="8" value="08"/>
        <field name="tcp.option_len" showname="Length: 10" size="1" pos="47" show="10" value="0a"/>
        <field name="tcp.options.timestamp.tsval" showname="Timestamp value: 2490944204" size="4" pos="48" show="2490944204" value="9478cacc"/>
        <field name="tcp.options.timestamp.tsecr" showname="Timestamp echo reply: 2266147408" size="4" pos="52" show="2266147408" value="8712aa50"/>
      </field>
    </field>
    <field name="" show="Timestamps" size="0" pos="24">
      <field name="tcp.time_relative" showname="Time since first frame in this TCP stream: 203.000 microseconds" size="0" pos="24" show="0.000203000"/>
      <field name="tcp.time_delta" showname="Time since previous frame in this TCP stream: 4.000 microseconds" size="0" pos="24" show="0.000004000"/>
    </field>
    <field name="tcp.analysis" showname="SEQ/ACK analysis" size="0" pos="24" show="" value="">
      <field name="tcp.analysis.initial_rtt" showname="iRTT: 173.000 microseconds" size="0" pos="24" show="0.000173000"/>
      <field name="tcp.analysis.flags" showname="TCP Analysis Flags" size="0" pos="24" show="" value="">
        <field name="_ws.expert" showname="Expert Info (Chat/Sequence): TCP window update" size="0" pos="24">
          <field name="tcp.analysis.window_update" showname="TCP window update" size="0" pos="0" show="" value=""/>
          <field name="_ws.expert.message" showname="Message: TCP window update" hide="yes" size="0" pos="0" show="TCP window update"/>
          <field name="_ws.expert.severity" showname="Severity level: Chat" size="0" pos="0" show="2097152"/>
          <field name="_ws.expert.group" showname="Group: Sequence" size="0" pos="0" show="33554432"/>
        </field>
      </field>
    </field>
    <field name="tcp.stream.client.contiguity_count" showname="Client Contiguous Streams: 1" size="0" pos="24" show="1"/>
    <field name="tcp.stream.server.contiguity_count" showname="Server Contiguous Streams: 1" size="0" pos="24" show="1"/>
  </proto>
</packet>


<packet>
  <proto name="geninfo" pos="0" showname="General information" size="138">
    <field name="num" pos="0" show="6" showname="Number" value="6" size="138"/>
    <field name="len" pos="0" show="138" showname="Frame Length" value="8a" size="138"/>
    <field name="caplen" pos="0" show="138" showname="Captured Length" value="8a" size="138"/>
    <field name="timestamp" pos="0" show="Sep 14, 2026 06:56:24.059247000 MSK" showname="Captured Time" value="1789358184.059247000" size="138"/>
  </proto>
  <proto name="frame" showname="Frame 6: Packet, 138 bytes on wire (1104 bits), 138 bytes captured (1104 bits) on interface lo0, id 0" size="138" pos="0">
    <field name="frame.section_number" showname="Section number: 1" size="0" pos="0" show="1"/>
    <field name="frame.interface_id" showname="Interface id: 0 (lo0)" size="0" pos="0" show="0">
      <field name="frame.interface_name" showname="Interface name: lo0" size="0" pos="0" show="lo0"/>
      <field name="frame.interface_description" showname="Interface description: Loopback" size="0" pos="0" show="Loopback"/>
    </field>
    <field name="frame.encap_type" showname="Encapsulation type: NULL/Loopback (15)" size="0" pos="0" show="15"/>
    <field name="frame.time" showname="Arrival Time: Sep 14, 2026 06:56:24.059247000 MSK" size="0" pos="0" show="2026-09-14T06:56:24.059247000+0300"/>
    <field name="frame.time_utc" showname="UTC Arrival Time: Sep 14, 2026 03:56:24.059247000 UTC" size="0" pos="0" show="2026-09-14T03:56:24.059247000Z"/>
    <field name="frame.time_epoch" showname="Epoch Arrival Time: 1789358184.059247000" size="0" pos="0" show="1789358184.059247000"/>
    <field name="frame.offset_shift" showname="Time shift for this packet: 0.000000000 seconds" size="0" pos="0" show="0.000000000"/>
    <field name="frame.time_delta" showname="Time delta from previous captured frame: 7.000 microseconds" size="0" pos="0" show="0.000007000"/>
    <field name="frame.time_delta_displayed" showname="Time delta from previous displayed frame: 7.000 microseconds" size="0" pos="0" show="0.000007000"/>
    <field name="frame.time_relative" showname="Time since reference or first frame: 210.000 microseconds" size="0" pos="0" show="0.000210000"/>
    <field name="frame.number" showname="Frame Number: 6" size="0" pos="0" show="6"/>
    <field name="frame.len" showname="Frame Length: 138 bytes (1104 bits)" size="0" pos="0" show="138"/>
    <field name="frame.cap_len" showname="Capture Length: 138 bytes (1104 bits)" size="0" pos="0" show="138"/>
    <field name="frame.marked" showname="Frame is marked: False" size="0" pos="0" show="False"/>
    <field name="frame.ignored" showname="Frame is ignored: False" size="0" pos="0" show="False"/>
    <field name="frame.protocols" showname="Protocols in frame: null:ip:tcp:http:data" size="0" pos="0" show="null:ip:tcp:http:data"/>
    <field name="frame.encoding" showname="Character encoding: ASCII (0)" size="0" pos="0" show="0"/>
  </proto>
  <proto name="null" showname="Null/Loopback" size="4" pos="0">
    <field name="null.family" showname="Family: IP (2)" size="4" pos="0" show="2" value="02000000"/>
  </proto>
  <proto name="ip" showname="Internet Protocol Version 4, Src: 127.0.0.1, Dst: 127.0.0.1" size="20" pos="4">
    <field name="ip.version" showname="0100 .... = Version: 4" size="1" pos="4" show="4" value="45"/>
    <field name="ip.hdr_len" showname=".... 0101 = Header Length: 20 bytes (5)" size="1" pos="4" show="20" value="45"/>
    <field name="ip.dsfield" showname="Differentiated Services Field: 0x00 (DSCP: CS0, ECN: Not-ECT)" size="1" pos="5" show="0x00" value="00">
      <field name="ip.dsfield.dscp" showname="0000 00.. = Differentiated Services Codepoint: Default (0)" size="1" pos="5" show="0" value="0" unmaskedvalue="00"/>
      <field name="ip.dsfield.ecn" showname=".... ..00 = Explicit Congestion Notification: Not ECN-Capable Transport (0)" size="1" pos="5" show="0" value="0" unmaskedvalue="00"/>
    </field>
    <field name="ip.len" showname="Total Length: 134" size="2" pos="6" show="134" value="0086"/>
    <field name="ip.id" showname="Identification: 0x0000 (0)" size="2" pos="8" show="0x0000" value="0000"/>
    <field name="ip.flags" showname="010. .... = Flags: 0x2, Don&#x27;t fragment" size="1" pos="10" show="0x02" value="2" unmaskedvalue="40">
      <field name="ip.flags.rb" showname="0... .... = Reserved bit: Not set" size="1" pos="10" show="False" value="0" unmaskedvalue="40"/>
      <field name="ip.flags.df" showname=".1.. .... = Don&#x27;t fragment: Set" size="1" pos="10" show="True" value="1" unmaskedvalue="40"/>
      <field name="ip.flags.mf" showname="..0. .... = More fragments: Not set" size="1" pos="10" show="False" value="0" unmaskedvalue="40"/>
    </field>
    <field name="ip.frag_offset" showname="...0 0000 0000 0000 = Fragment Offset: 0" size="2" pos="10" show="0" value="0" unmaskedvalue="4000"/>
    <field name="ip.ttl" showname="Time to Live: 64" size="1" pos="12" show="64" value="40"/>
    <field name="ip.proto" showname="Protocol: TCP (6)" size="1" pos="13" show="6" value="06"/>
    <field name="ip.checksum" showname="Header Checksum: 0x0000 [validation disabled]" size="2" pos="14" show="0x0000" value="0000"/>
    <field name="ip.checksum.status" showname="Header checksum status: Unverified" size="0" pos="14" show="2"/>
    <field name="ip.src" showname="Source Address: 127.0.0.1" size="4" pos="16" show="127.0.0.1" value="7f000001"/>
    <field name="ip.addr" showname="Source or Destination Address: 127.0.0.1" hide="yes" size="4" pos="16" show="127.0.0.1" value="7f000001"/>
    <field name="ip.src_host" showname="Source Host: 127.0.0.1" hide="yes" size="4" pos="16" show="127.0.0.1" value="7f000001"/>
    <field name="ip.host" showname="Source or Destination Host: 127.0.0.1" hide="yes" size="4" pos="16" show="127.0.0.1" value="7f000001"/>
    <field name="ip.dst" showname="Destination Address: 127.0.0.1" size="4" pos="20" show="127.0.0.1" value="7f000001"/>
    <field name="ip.addr" showname="Source or Destination Address: 127.0.0.1" hide="yes" size="4" pos="20" show="127.0.0.1" value="7f000001"/>
    <field name="ip.dst_host" showname="Destination Host: 127.0.0.1" hide="yes" size="4" pos="20" show="127.0.0.1" value="7f000001"/>
    <field name="ip.host" showname="Source or Destination Host: 127.0.0.1" hide="yes" size="4" pos="20" show="127.0.0.1" value="7f000001"/>
    <field name="ip.stream" showname="Stream index: 0" size="0" pos="24" show="0"/>
  </proto>
  <proto name="tcp" showname="Transmission Control Protocol, Src Port: 56080, Dst Port: 18123, Seq: 241, Ack: 1, Len: 82" size="32" pos="24">
    <field name="tcp.srcport" showname="Source Port: 56080" size="2" pos="24" show="56080" value="db10"/>
    <field name="tcp.dstport" showname="Destination Port: 18123" size="2" pos="26" show="18123" value="46cb"/>
    <field name="tcp.port" showname="Source or Destination Port: 56080" hide="yes" size="2" pos="24" show="56080" value="db10"/>
    <field name="tcp.port" showname="Source or Destination Port: 18123" hide="yes" size="2" pos="26" show="18123" value="46cb"/>
    <field name="tcp.stream" showname="Stream index: 0" size="0" pos="24" show="0"/>
    <field name="tcp.stream.pnum" showname="Stream Packet Number: 6" size="0" pos="24" show="6"/>
    <field name="tcp.completeness" showname="Conversation completeness: Incomplete, DATA (15)" size="0" pos="24" show="15">
      <field name="tcp.completeness.rst" showname="..0. .... = RST: Absent" size="0" pos="0" show="False"/>
      <field name="tcp.completeness.fin" showname="...0 .... = FIN: Absent" size="0" pos="0" show="False"/>
      <field name="tcp.completeness.data" showname=".... 1... = Data: Present" size="0" pos="0" show="True"/>
      <field name="tcp.completeness.ack" showname=".... .1.. = ACK: Present" size="0" pos="0" show="True"/>
      <field name="tcp.completeness.syn-ack" showname=".... ..1. = SYN-ACK: Present" size="0" pos="0" show="True"/>
      <field name="tcp.completeness.syn" showname=".... ...1 = SYN: Present" size="0" pos="0" show="True"/>
      <field name="tcp.completeness.str" showname="Completeness Flags: ··DASS" size="0" pos="24" show="··DASS"/>
    </field>
    <field name="tcp.len" showname="TCP Segment Len: 82" size="0" pos="24" show="82"/>
    <field name="tcp.seq" showname="Sequence Number: 241    (relative sequence number)" size="4" pos="28" show="241" value="341198f7"/>
    <field name="tcp.seq_raw" showname="Sequence Number (raw): 873568503" size="4" pos="28" show="873568503" value="341198f7"/>
    <field name="tcp.nxtseq" showname="Next Sequence Number: 323    (relative sequence number)" size="0" pos="24" show="323"/>
    <field name="tcp.ack" showname="Acknowledgment Number: 1    (relative ack number)" size="4" pos="32" show="1" value="a8ebad19"/>
    <field name="tcp.ack_raw" showname="Acknowledgment number (raw): 2834017561" size="4" pos="32" show="2834017561" value="a8ebad19"/>
    <field name="tcp.hdr_len" showname="1000 .... = Header Length: 32 bytes (8)" size="1" pos="36" show="32" value="80"/>
    <field name="tcp.flags" showname="Flags: 0x018 (PSH, ACK)" size="2" pos="36" show="0x0018" value="18" unmaskedvalue="8018">
      <field name="tcp.flags.res" showname="000. .... .... = Reserved: Not set" size="1" pos="36" show="False" value="0" unmaskedvalue="80"/>
      <field name="tcp.flags.ae" showname="...0 .... .... = Accurate ECN: Not set" size="1" pos="36" show="False" value="0" unmaskedvalue="80"/>
      <field name="tcp.flags.cwr" showname=".... 0... .... = Congestion Window Reduced: Not set" size="1" pos="37" show="False" value="0" unmaskedvalue="18"/>
      <field name="tcp.flags.ece" showname=".... .0.. .... = ECN-Echo: Not set" size="1" pos="37" show="False" value="0" unmaskedvalue="18"/>
      <field name="tcp.flags.urg" showname=".... ..0. .... = Urgent: Not set" size="1" pos="37" show="False" value="0" unmaskedvalue="18"/>
      <field name="tcp.flags.ack" showname=".... ...1 .... = Acknowledgment: Set" size="1" pos="37" show="True" value="1" unmaskedvalue="18"/>
      <field name="tcp.flags.push" showname=".... .... 1... = Push: Set" size="1" pos="37" show="True" value="1" unmaskedvalue="18"/>
      <field name="tcp.flags.reset" showname=".... .... .0.. = Reset: Not set" size="1" pos="37" show="False" value="0" unmaskedvalue="18"/>
      <field name="tcp.flags.syn" showname=".... .... ..0. = Syn: Not set" size="1" pos="37" show="False" value="0" unmaskedvalue="18"/>
      <field name="tcp.flags.fin" showname=".... .... ...0 = Fin: Not set" size="1" pos="37" show="False" value="0" unmaskedvalue="18"/>
      <field name="tcp.flags.str" showname="TCP Flags: ·······AP···" size="2" pos="36" show="·······AP···" value="8018"/>
    </field>
    <field name="tcp.window_size_value" showname="Window: 6380" size="2" pos="38" show="6380" value="18ec"/>
    <field name="tcp.window_size" showname="Calculated window size: 408320" size="2" pos="38" show="408320" value="18ec"/>
    <field name="tcp.window_size_scalefactor" showname="Window size scaling factor: 64" size="2" pos="38" show="64" value="18ec"/>
    <field name="tcp.checksum" showname="Checksum: 0xfe7a [unverified]" size="2" pos="40" show="0xfe7a" value="fe7a"/>
    <field name="tcp.checksum.status" showname="Checksum Status: Unverified" size="0" pos="40" show="2"/>
    <field name="tcp.urgent_pointer" showname="Urgent Pointer: 0" size="2" pos="42" show="0" value="0000"/>
    <field name="tcp.options" showname="Options: (12 bytes), No-Operation (NOP), No-Operation (NOP), Timestamps" size="12" pos="44" show="01:01:08:0a:87:12:aa:50:94:78:ca:cc" value="0101080a8712aa509478cacc">
      <field name="tcp.options.nop" showname="TCP Option - No-Operation (NOP)" size="1" pos="44" show="01" value="01">
        <field name="tcp.option_kind" showname="Kind: No-Operation (1)" size="1" pos="44" show="1" value="01"/>
      </field>
      <field name="tcp.options.nop" showname="TCP Option - No-Operation (NOP)" size="1" pos="45" show="01" value="01">
        <field name="tcp.option_kind" showname="Kind: No-Operation (1)" size="1" pos="45" show="1" value="01"/>
      </field>
      <field name="tcp.options.timestamp" showname="TCP Option - Timestamps: TSval 2266147408, TSecr 2490944204" size="10" pos="46" show="08:0a:87:12:aa:50:94:78:ca:cc" value="080a8712aa509478cacc">
        <field name="tcp.option_kind" showname="Kind: Time Stamp Option (8)" size="1" pos="46" show="8" value="08"/>
        <field name="tcp.option_len" showname="Length: 10" size="1" pos="47" show="10" value="0a"/>
        <field name="tcp.options.timestamp.tsval" showname="Timestamp value: 2266147408" size="4" pos="48" show="2266147408" value="8712aa50"/>
        <field name="tcp.options.timestamp.tsecr" showname="Timestamp echo reply: 2490944204" size="4" pos="52" show="2490944204" value="9478cacc"/>
      </field>
    </field>
    <field name="" show="Timestamps" size="0" pos="24">
      <field name="tcp.time_relative" showname="Time since first frame in this TCP stream: 210.000 microseconds" size="0" pos="24" show="0.000210000"/>
      <field name="tcp.time_delta" showname="Time since previous frame in this TCP stream: 7.000 microseconds" size="0" pos="24" show="0.000007000"/>
    </field>
    <field name="tcp.analysis" showname="SEQ/ACK analysis" size="0" pos="24" show="" value="">
      <field name="tcp.analysis.initial_rtt" showname="iRTT: 173.000 microseconds" size="0" pos="24" show="0.000173000"/>
      <field name="tcp.analysis.bytes_in_flight" showname="Bytes in flight: 322" size="0" pos="24" show="322"/>
      <field name="tcp.analysis.push_bytes_sent" showname="Bytes sent since last PSH flag: 82" size="0" pos="24" show="82"/>
    </field>
    <field name="tcp.stream.client.contiguity_count" showname="Client Contiguous Streams: 1" size="0" pos="24" show="1"/>
    <field name="tcp.stream.server.contiguity_count" showname="Server Contiguous Streams: 1" size="0" pos="24" show="1"/>
    <field name="tcp.payload" showname="TCP payload (82 bytes)" size="82" pos="56" show="53:45:4c:45:43:54:20:63:6f:6e:66:2c:20:73:74:61:72:74:73:5f:61:74:2c:20:73:70:65:61:6b:65:72:20:46:52:4f:4d:20:73:6d:61:72:74:64:61:74:61:20:4f:52:44:45:52:20:42:59:20:73:74:61:72:74:73:5f:61:74:20:46:4f:52:4d:41:54:20:52:6f:77:42:69:6e:61:72:79" value="53454c45435420636f6e662c207374617274735f61742c20737065616b65722046524f4d20736d61727464617461204f52444552204259207374617274735f617420464f524d415420526f7742696e617279"/>
    <field name="tcp.segment_data" showname="TCP segment data (82 bytes)" size="82" pos="56" show="53:45:4c:45:43:54:20:63:6f:6e:66:2c:20:73:74:61:72:74:73:5f:61:74:2c:20:73:70:65:61:6b:65:72:20:46:52:4f:4d:20:73:6d:61:72:74:64:61:74:61:20:4f:52:44:45:52:20:42:59:20:73:74:61:72:74:73:5f:61:74:20:46:4f:52:4d:41:54:20:52:6f:77:42:69:6e:61:72:79" value="53454c45435420636f6e662c207374617274735f61742c20737065616b65722046524f4d20736d61727464617461204f52444552204259207374617274735f617420464f524d415420526f7742696e617279"/>
  </proto>
  <proto name="fake-field-wrapper">
    <field name="tcp.segments" showname="2 Reassembled TCP Segments (322 bytes): #4(240), #6(82)" size="322" pos="0" show="" value="">
      <field name="tcp.segment" showname="Frame: 4, payload: 0-239 (240 bytes)" size="240" pos="0" show="4" value="504f5354202f3f656e61626c655f687474705f636f6d7072657373696f6e3d3020485454502f312e310d0a486f73743a203132372e302e302e313a31383132330d0a557365722d4167656e743a20707974686f6e2d72657175657374732f322e33342e320d0a4163636570742d456e636f64696e673a20677a69702c206465666c6174650d0a4163636570743a202a2f2a0d0a436f6e6e656374696f6e3a206b6565702d616c6976650d0a436f6e74656e742d4c656e6774683a2038320d0a417574686f72697a6174696f6e3a204261736963206432397961334e6f623341366432397961334e6f6233413d0d0a0d0a"/>
      <field name="tcp.segment" showname="Frame: 6, payload: 240-321 (82 bytes)" size="82" pos="240" show="6" value="53454c45435420636f6e662c207374617274735f61742c20737065616b65722046524f4d20736d61727464617461204f52444552204259207374617274735f617420464f524d415420526f7742696e617279"/>
      <field name="tcp.segment.count" showname="Segment count: 2" size="0" pos="0" show="2"/>
      <field name="tcp.reassembled.length" showname="Reassembled TCP length: 322" size="0" pos="0" show="322"/>
      <field name="tcp.reassembled.data" showname="Reassembled TCP Data […]: 504f5354202f3f656e61626c655f687474705f636f6d7072657373696f6e3d3020485454502f312e310d0a486f73743a203132372e302e302e313a31383132330d0a557365722d4167656e743a20707974686f6e2d72657175657374732f322e33342e320d0a4163636" size="322" pos="0" show="50:4f:53:54:20:2f:3f:65:6e:61:62:6c:65:5f:68:74:74:70:5f:63:6f:6d:70:72:65:73:73:69:6f:6e:3d:30:20:48:54:54:50:2f:31:2e:31:0d:0a:48:6f:73:74:3a:20:31:32:37:2e:30:2e:30:2e:31:3a:31:38:31:32:33:0d:0a:55:73:65:72:2d:41:67:65:6e:74:3a:20:70:79:74:68:6f:6e:2d:72:65:71:75:65:73:74:73:2f:32:2e:33:34:2e:32:0d:0a:41:63:63:65:70:74:2d:45:6e:63:6f:64:69:6e:67:3a:20:67:7a:69:70:2c:20:64:65:66:6c:61:74:65:0d:0a:41:63:63:65:70:74:3a:20:2a:2f:2a:0d:0a:43:6f:6e:6e:65:63:74:69:6f:6e:3a:20:6b:65:65:70:2d:61:6c:69:76:65:0d:0a:43:6f:6e:74:65:6e:74:2d:4c:65:6e:67:74:68:3a:20:38:32:0d:0a:41:75:74:68:6f:72:69:7a:61:74:69:6f:6e:3a:20:42:61:73:69:63:20:64:32:39:79:61:33:4e:6f:62:33:41:36:64:32:39:79:61:33:4e:6f:62:33:41:3d:0d:0a:0d:0a:53:45:4c:45:43:54:20:63:6f:6e:66:2c:20:73:74:61:72:74:73:5f:61:74:2c:20:73:70:65:61:6b:65:72:20:46:52:4f:4d:20:73:6d:61:72:74:64:61:74:61:20:4f:52:44:45:52:20:42:59:20:73:74:61:72:74:73:5f:61:74:20:46:4f:52:4d:41:54:20:52:6f:77:42:69:6e:61:72:79" value="504f5354202f3f656e61626c655f687474705f636f6d7072657373696f6e3d3020485454502f312e310d0a486f73743a203132372e302e302e313a31383132330d0a557365722d4167656e743a20707974686f6e2d72657175657374732f322e33342e320d0a4163636570742d456e636f64696e673a20677a69702c206465666c6174650d0a4163636570743a202a2f2a0d0a436f6e6e656374696f6e3a206b6565702d616c6976650d0a436f6e74656e742d4c656e6774683a2038320d0a417574686f72697a6174696f6e3a204261736963206432397961334e6f623341366432397961334e6f6233413d0d0a0d0a53454c45435420636f6e662c207374617274735f61742c20737065616b65722046524f4d20736d61727464617461204f52444552204259207374617274735f617420464f524d415420526f7742696e617279"/>
  </field>
  </proto>
  <proto name="http" showname="Hypertext Transfer Protocol" size="322" pos="0">
    <field name="" show="POST /?enable_http_compression=0 HTTP/1.1\r\n" size="43" pos="0" value="504f5354202f3f656e61626c655f687474705f636f6d7072657373696f6e3d3020485454502f312e310d0a">
      <field name="http.request.method" showname="Request Method: POST" size="4" pos="0" show="POST" value="504f5354"/>
      <field name="http.request.uri" showname="Request URI: /?enable_http_compression=0" size="27" pos="5" show="/?enable_http_compression=0" value="2f3f656e61626c655f687474705f636f6d7072657373696f6e3d30">
        <field name="http.request.uri.path" showname="Request URI Path: /" size="1" pos="5" show="/" value="2f"/>
        <field name="http.request.uri.query" showname="Request URI Query: enable_http_compression=0" size="25" pos="7" show="enable_http_compression=0" value="656e61626c655f687474705f636f6d7072657373696f6e3d30">
          <field name="http.request.uri.query.parameter" showname="Request URI Query Parameter: enable_http_compression=0" size="25" pos="7" show="enable_http_compression=0" value="656e61626c655f687474705f636f6d7072657373696f6e3d30"/>
        </field>
      </field>
      <field name="http.request.version" showname="Request Version: HTTP/1.1" size="8" pos="33" show="HTTP/1.1" value="485454502f312e31"/>
    </field>
    <field name="http.host" showname="Host: 127.0.0.1:18123\r\n" size="23" pos="43" show="127.0.0.1:18123" value="486f73743a203132372e302e302e313a31383132330d0a"/>
    <field name="http.request.line" showname="Host: 127.0.0.1:18123\r\n" hide="yes" size="23" pos="43" show="Host: 127.0.0.1:18123
" value="486f73743a203132372e302e302e313a31383132330d0a"/>
    <field name="http.user_agent" showname="User-Agent: python-requests/2.34.2\r\n" size="36" pos="66" show="python-requests/2.34.2" value="557365722d4167656e743a20707974686f6e2d72657175657374732f322e33342e320d0a"/>
    <field name="http.request.line" showname="User-Agent: python-requests/2.34.2\r\n" hide="yes" size="36" pos="66" show="User-Agent: python-requests/2.34.2
" value="557365722d4167656e743a20707974686f6e2d72657175657374732f322e33342e320d0a"/>
    <field name="http.accept_encoding" showname="Accept-Encoding: gzip, deflate\r\n" size="32" pos="102" show="gzip, deflate" value="4163636570742d456e636f64696e673a20677a69702c206465666c6174650d0a"/>
    <field name="http.request.line" showname="Accept-Encoding: gzip, deflate\r\n" hide="yes" size="32" pos="102" show="Accept-Encoding: gzip, deflate
" value="4163636570742d456e636f64696e673a20677a69702c206465666c6174650d0a"/>
    <field name="http.accept" showname="Accept: */*\r\n" size="13" pos="134" show="*/*" value="4163636570743a202a2f2a0d0a"/>
    <field name="http.request.line" showname="Accept: */*\r\n" hide="yes" size="13" pos="134" show="Accept: */*
" value="4163636570743a202a2f2a0d0a"/>
    <field name="http.connection" showname="Connection: keep-alive\r\n" size="24" pos="147" show="keep-alive" value="436f6e6e656374696f6e3a206b6565702d616c6976650d0a"/>
    <field name="http.request.line" showname="Connection: keep-alive\r\n" hide="yes" size="24" pos="147" show="Connection: keep-alive
" value="436f6e6e656374696f6e3a206b6565702d616c6976650d0a"/>
    <field name="http.content_length_header" showname="Content-Length: 82\r\n" size="20" pos="171" show="82" value="436f6e74656e742d4c656e6774683a2038320d0a">
      <field name="http.content_length" showname="Content length: 82" size="20" pos="171" show="82" value="436f6e74656e742d4c656e6774683a2038320d0a"/>
    </field>
    <field name="http.request.line" showname="Content-Length: 82\r\n" hide="yes" size="20" pos="171" show="Content-Length: 82
" value="436f6e74656e742d4c656e6774683a2038320d0a"/>
    <field name="http.authorization" showname="Authorization: Basic d29ya3Nob3A6d29ya3Nob3A=\r\n" size="47" pos="191" show="Basic d29ya3Nob3A6d29ya3Nob3A=" value="417574686f72697a6174696f6e3a204261736963206432397961334e6f623341366432397961334e6f6233413d0d0a">
      <field name="http.authbasic" showname="Credentials: workshop:workshop" size="17" pos="191" show="workshop:workshop" value="776f726b73686f703a776f726b73686f70"/>
    </field>
    <field name="http.request.line" showname="Authorization: Basic d29ya3Nob3A6d29ya3Nob3A=\r\n" hide="yes" size="47" pos="191" show="Authorization: Basic d29ya3Nob3A6d29ya3Nob3A=
" value="417574686f72697a6174696f6e3a204261736963206432397961334e6f623341366432397961334e6f6233413d0d0a"/>
    <field name="" show="\r\n" size="2" pos="238" value="0d0a"/>
    <field name="http.request" showname="Request: True" hide="yes" size="0" pos="0" show="True"/>
    <field name="http.request.full_uri" showname="Full request URI: http://127.0.0.1:18123/?enable_http_compression=0" size="0" pos="0" show="http://127.0.0.1:18123/?enable_http_compression=0"/>
    <field name="http.file_data" showname="File Data: 82 bytes" size="82" pos="240" show="53:45:4c:45:43:54:20:63:6f:6e:66:2c:20:73:74:61:72:74:73:5f:61:74:2c:20:73:70:65:61:6b:65:72:20:46:52:4f:4d:20:73:6d:61:72:74:64:61:74:61:20:4f:52:44:45:52:20:42:59:20:73:74:61:72:74:73:5f:61:74:20:46:4f:52:4d:41:54:20:52:6f:77:42:69:6e:61:72:79" value="53454c45435420636f6e662c207374617274735f61742c20737065616b65722046524f4d20736d61727464617461204f52444552204259207374617274735f617420464f524d415420526f7742696e617279"/>
    <field name="data" value="53454c45435420636f6e662c207374617274735f61742c20737065616b65722046524f4d20736d61727464617461204f52444552204259207374617274735f617420464f524d415420526f7742696e617279">
      <field name="data.data" showname="Data: 53454c45435420636f6e662c207374617274735f61742c20737065616b65722046524f4d20736d61727464617461204f52444552204259207374617274735f617420464f524d415420526f7742696e617279" size="82" pos="240" show="53:45:4c:45:43:54:20:63:6f:6e:66:2c:20:73:74:61:72:74:73:5f:61:74:2c:20:73:70:65:61:6b:65:72:20:46:52:4f:4d:20:73:6d:61:72:74:64:61:74:61:20:4f:52:44:45:52:20:42:59:20:73:74:61:72:74:73:5f:61:74:20:46:4f:52:4d:41:54:20:52:6f:77:42:69:6e:61:72:79" value="53454c45435420636f6e662c207374617274735f61742c20737065616b65722046524f4d20736d61727464617461204f52444552204259207374617274735f617420464f524d415420526f7742696e617279"/>
      <field name="data.len" showname="Length: 82" size="0" pos="240" show="82"/>
    </field>
  </proto>
</packet>


<packet>
  <proto name="geninfo" pos="0" showname="General information" size="56">
    <field name="num" pos="0" show="7" showname="Number" value="7" size="56"/>
    <field name="len" pos="0" show="56" showname="Frame Length" value="38" size="56"/>
    <field name="caplen" pos="0" show="56" showname="Captured Length" value="38" size="56"/>
    <field name="timestamp" pos="0" show="Sep 14, 2026 06:56:24.059262000 MSK" showname="Captured Time" value="1789358184.059262000" size="56"/>
  </proto>
  <proto name="frame" showname="Frame 7: Packet, 56 bytes on wire (448 bits), 56 bytes captured (448 bits) on interface lo0, id 0" size="56" pos="0">
    <field name="frame.section_number" showname="Section number: 1" size="0" pos="0" show="1"/>
    <field name="frame.interface_id" showname="Interface id: 0 (lo0)" size="0" pos="0" show="0">
      <field name="frame.interface_name" showname="Interface name: lo0" size="0" pos="0" show="lo0"/>
      <field name="frame.interface_description" showname="Interface description: Loopback" size="0" pos="0" show="Loopback"/>
    </field>
    <field name="frame.encap_type" showname="Encapsulation type: NULL/Loopback (15)" size="0" pos="0" show="15"/>
    <field name="frame.time" showname="Arrival Time: Sep 14, 2026 06:56:24.059262000 MSK" size="0" pos="0" show="2026-09-14T06:56:24.059262000+0300"/>
    <field name="frame.time_utc" showname="UTC Arrival Time: Sep 14, 2026 03:56:24.059262000 UTC" size="0" pos="0" show="2026-09-14T03:56:24.059262000Z"/>
    <field name="frame.time_epoch" showname="Epoch Arrival Time: 1789358184.059262000" size="0" pos="0" show="1789358184.059262000"/>
    <field name="frame.offset_shift" showname="Time shift for this packet: 0.000000000 seconds" size="0" pos="0" show="0.000000000"/>
    <field name="frame.time_delta" showname="Time delta from previous captured frame: 15.000 microseconds" size="0" pos="0" show="0.000015000"/>
    <field name="frame.time_delta_displayed" showname="Time delta from previous displayed frame: 15.000 microseconds" size="0" pos="0" show="0.000015000"/>
    <field name="frame.time_relative" showname="Time since reference or first frame: 225.000 microseconds" size="0" pos="0" show="0.000225000"/>
    <field name="frame.number" showname="Frame Number: 7" size="0" pos="0" show="7"/>
    <field name="frame.len" showname="Frame Length: 56 bytes (448 bits)" size="0" pos="0" show="56"/>
    <field name="frame.cap_len" showname="Capture Length: 56 bytes (448 bits)" size="0" pos="0" show="56"/>
    <field name="frame.marked" showname="Frame is marked: False" size="0" pos="0" show="False"/>
    <field name="frame.ignored" showname="Frame is ignored: False" size="0" pos="0" show="False"/>
    <field name="frame.protocols" showname="Protocols in frame: null:ip:tcp" size="0" pos="0" show="null:ip:tcp"/>
    <field name="frame.encoding" showname="Character encoding: ASCII (0)" size="0" pos="0" show="0"/>
  </proto>
  <proto name="null" showname="Null/Loopback" size="4" pos="0">
    <field name="null.family" showname="Family: IP (2)" size="4" pos="0" show="2" value="02000000"/>
  </proto>
  <proto name="ip" showname="Internet Protocol Version 4, Src: 127.0.0.1, Dst: 127.0.0.1" size="20" pos="4">
    <field name="ip.version" showname="0100 .... = Version: 4" size="1" pos="4" show="4" value="45"/>
    <field name="ip.hdr_len" showname=".... 0101 = Header Length: 20 bytes (5)" size="1" pos="4" show="20" value="45"/>
    <field name="ip.dsfield" showname="Differentiated Services Field: 0x00 (DSCP: CS0, ECN: Not-ECT)" size="1" pos="5" show="0x00" value="00">
      <field name="ip.dsfield.dscp" showname="0000 00.. = Differentiated Services Codepoint: Default (0)" size="1" pos="5" show="0" value="0" unmaskedvalue="00"/>
      <field name="ip.dsfield.ecn" showname=".... ..00 = Explicit Congestion Notification: Not ECN-Capable Transport (0)" size="1" pos="5" show="0" value="0" unmaskedvalue="00"/>
    </field>
    <field name="ip.len" showname="Total Length: 52" size="2" pos="6" show="52" value="0034"/>
    <field name="ip.id" showname="Identification: 0x0000 (0)" size="2" pos="8" show="0x0000" value="0000"/>
    <field name="ip.flags" showname="010. .... = Flags: 0x2, Don&#x27;t fragment" size="1" pos="10" show="0x02" value="2" unmaskedvalue="40">
      <field name="ip.flags.rb" showname="0... .... = Reserved bit: Not set" size="1" pos="10" show="False" value="0" unmaskedvalue="40"/>
      <field name="ip.flags.df" showname=".1.. .... = Don&#x27;t fragment: Set" size="1" pos="10" show="True" value="1" unmaskedvalue="40"/>
      <field name="ip.flags.mf" showname="..0. .... = More fragments: Not set" size="1" pos="10" show="False" value="0" unmaskedvalue="40"/>
    </field>
    <field name="ip.frag_offset" showname="...0 0000 0000 0000 = Fragment Offset: 0" size="2" pos="10" show="0" value="0" unmaskedvalue="4000"/>
    <field name="ip.ttl" showname="Time to Live: 64" size="1" pos="12" show="64" value="40"/>
    <field name="ip.proto" showname="Protocol: TCP (6)" size="1" pos="13" show="6" value="06"/>
    <field name="ip.checksum" showname="Header Checksum: 0x0000 [validation disabled]" size="2" pos="14" show="0x0000" value="0000"/>
    <field name="ip.checksum.status" showname="Header checksum status: Unverified" size="0" pos="14" show="2"/>
    <field name="ip.src" showname="Source Address: 127.0.0.1" size="4" pos="16" show="127.0.0.1" value="7f000001"/>
    <field name="ip.addr" showname="Source or Destination Address: 127.0.0.1" hide="yes" size="4" pos="16" show="127.0.0.1" value="7f000001"/>
    <field name="ip.src_host" showname="Source Host: 127.0.0.1" hide="yes" size="4" pos="16" show="127.0.0.1" value="7f000001"/>
    <field name="ip.host" showname="Source or Destination Host: 127.0.0.1" hide="yes" size="4" pos="16" show="127.0.0.1" value="7f000001"/>
    <field name="ip.dst" showname="Destination Address: 127.0.0.1" size="4" pos="20" show="127.0.0.1" value="7f000001"/>
    <field name="ip.addr" showname="Source or Destination Address: 127.0.0.1" hide="yes" size="4" pos="20" show="127.0.0.1" value="7f000001"/>
    <field name="ip.dst_host" showname="Destination Host: 127.0.0.1" hide="yes" size="4" pos="20" show="127.0.0.1" value="7f000001"/>
    <field name="ip.host" showname="Source or Destination Host: 127.0.0.1" hide="yes" size="4" pos="20" show="127.0.0.1" value="7f000001"/>
    <field name="ip.stream" showname="Stream index: 0" size="0" pos="24" show="0"/>
  </proto>
  <proto name="tcp" showname="Transmission Control Protocol, Src Port: 18123, Dst Port: 56080, Seq: 1, Ack: 241, Len: 0" size="32" pos="24">
    <field name="tcp.srcport" showname="Source Port: 18123" size="2" pos="24" show="18123" value="46cb"/>
    <field name="tcp.dstport" showname="Destination Port: 56080" size="2" pos="26" show="56080" value="db10"/>
    <field name="tcp.port" showname="Source or Destination Port: 18123" hide="yes" size="2" pos="24" show="18123" value="46cb"/>
    <field name="tcp.port" showname="Source or Destination Port: 56080" hide="yes" size="2" pos="26" show="56080" value="db10"/>
    <field name="tcp.stream" showname="Stream index: 0" size="0" pos="24" show="0"/>
    <field name="tcp.stream.pnum" showname="Stream Packet Number: 7" size="0" pos="24" show="7"/>
    <field name="tcp.completeness" showname="Conversation completeness: Incomplete, DATA (15)" size="0" pos="24" show="15">
      <field name="tcp.completeness.rst" showname="..0. .... = RST: Absent" size="0" pos="0" show="False"/>
      <field name="tcp.completeness.fin" showname="...0 .... = FIN: Absent" size="0" pos="0" show="False"/>
      <field name="tcp.completeness.data" showname=".... 1... = Data: Present" size="0" pos="0" show="True"/>
      <field name="tcp.completeness.ack" showname=".... .1.. = ACK: Present" size="0" pos="0" show="True"/>
      <field name="tcp.completeness.syn-ack" showname=".... ..1. = SYN-ACK: Present" size="0" pos="0" show="True"/>
      <field name="tcp.completeness.syn" showname=".... ...1 = SYN: Present" size="0" pos="0" show="True"/>
      <field name="tcp.completeness.str" showname="Completeness Flags: ··DASS" size="0" pos="24" show="··DASS"/>
    </field>
    <field name="tcp.len" showname="TCP Segment Len: 0" size="0" pos="24" show="0"/>
    <field name="tcp.seq" showname="Sequence Number: 1    (relative sequence number)" size="4" pos="28" show="1" value="a8ebad19"/>
    <field name="tcp.seq_raw" showname="Sequence Number (raw): 2834017561" size="4" pos="28" show="2834017561" value="a8ebad19"/>
    <field name="tcp.nxtseq" showname="Next Sequence Number: 1    (relative sequence number)" size="0" pos="24" show="1"/>
    <field name="tcp.ack" showname="Acknowledgment Number: 241    (relative ack number)" size="4" pos="32" show="241" value="341198f7"/>
    <field name="tcp.ack_raw" showname="Acknowledgment number (raw): 873568503" size="4" pos="32" show="873568503" value="341198f7"/>
    <field name="tcp.hdr_len" showname="1000 .... = Header Length: 32 bytes (8)" size="1" pos="36" show="32" value="80"/>
    <field name="tcp.flags" showname="Flags: 0x010 (ACK)" size="2" pos="36" show="0x0010" value="10" unmaskedvalue="8010">
      <field name="tcp.flags.res" showname="000. .... .... = Reserved: Not set" size="1" pos="36" show="False" value="0" unmaskedvalue="80"/>
      <field name="tcp.flags.ae" showname="...0 .... .... = Accurate ECN: Not set" size="1" pos="36" show="False" value="0" unmaskedvalue="80"/>
      <field name="tcp.flags.cwr" showname=".... 0... .... = Congestion Window Reduced: Not set" size="1" pos="37" show="False" value="0" unmaskedvalue="10"/>
      <field name="tcp.flags.ece" showname=".... .0.. .... = ECN-Echo: Not set" size="1" pos="37" show="False" value="0" unmaskedvalue="10"/>
      <field name="tcp.flags.urg" showname=".... ..0. .... = Urgent: Not set" size="1" pos="37" show="False" value="0" unmaskedvalue="10"/>
      <field name="tcp.flags.ack" showname=".... ...1 .... = Acknowledgment: Set" size="1" pos="37" show="True" value="1" unmaskedvalue="10"/>
      <field name="tcp.flags.push" showname=".... .... 0... = Push: Not set" size="1" pos="37" show="False" value="0" unmaskedvalue="10"/>
      <field name="tcp.flags.reset" showname=".... .... .0.. = Reset: Not set" size="1" pos="37" show="False" value="0" unmaskedvalue="10"/>
      <field name="tcp.flags.syn" showname=".... .... ..0. = Syn: Not set" size="1" pos="37" show="False" value="0" unmaskedvalue="10"/>
      <field name="tcp.flags.fin" showname=".... .... ...0 = Fin: Not set" size="1" pos="37" show="False" value="0" unmaskedvalue="10"/>
      <field name="tcp.flags.str" showname="TCP Flags: ·······A····" size="2" pos="36" show="·······A····" value="8010"/>
    </field>
    <field name="tcp.window_size_value" showname="Window: 6377" size="2" pos="38" show="6377" value="18e9"/>
    <field name="tcp.window_size" showname="Calculated window size: 408128" size="2" pos="38" show="408128" value="18e9"/>
    <field name="tcp.window_size_scalefactor" showname="Window size scaling factor: 64" size="2" pos="38" show="64" value="18e9"/>
    <field name="tcp.checksum" showname="Checksum: 0xfe28 [unverified]" size="2" pos="40" show="0xfe28" value="fe28"/>
    <field name="tcp.checksum.status" showname="Checksum Status: Unverified" size="0" pos="40" show="2"/>
    <field name="tcp.urgent_pointer" showname="Urgent Pointer: 0" size="2" pos="42" show="0" value="0000"/>
    <field name="tcp.options" showname="Options: (12 bytes), No-Operation (NOP), No-Operation (NOP), Timestamps" size="12" pos="44" show="01:01:08:0a:94:78:ca:cc:87:12:aa:50" value="0101080a9478cacc8712aa50">
      <field name="tcp.options.nop" showname="TCP Option - No-Operation (NOP)" size="1" pos="44" show="01" value="01">
        <field name="tcp.option_kind" showname="Kind: No-Operation (1)" size="1" pos="44" show="1" value="01"/>
      </field>
      <field name="tcp.options.nop" showname="TCP Option - No-Operation (NOP)" size="1" pos="45" show="01" value="01">
        <field name="tcp.option_kind" showname="Kind: No-Operation (1)" size="1" pos="45" show="1" value="01"/>
      </field>
      <field name="tcp.options.timestamp" showname="TCP Option - Timestamps: TSval 2490944204, TSecr 2266147408" size="10" pos="46" show="08:0a:94:78:ca:cc:87:12:aa:50" value="080a9478cacc8712aa50">
        <field name="tcp.option_kind" showname="Kind: Time Stamp Option (8)" size="1" pos="46" show="8" value="08"/>
        <field name="tcp.option_len" showname="Length: 10" size="1" pos="47" show="10" value="0a"/>
        <field name="tcp.options.timestamp.tsval" showname="Timestamp value: 2490944204" size="4" pos="48" show="2490944204" value="9478cacc"/>
        <field name="tcp.options.timestamp.tsecr" showname="Timestamp echo reply: 2266147408" size="4" pos="52" show="2266147408" value="8712aa50"/>
      </field>
    </field>
    <field name="" show="Timestamps" size="0" pos="24">
      <field name="tcp.time_relative" showname="Time since first frame in this TCP stream: 225.000 microseconds" size="0" pos="24" show="0.000225000"/>
      <field name="tcp.time_delta" showname="Time since previous frame in this TCP stream: 15.000 microseconds" size="0" pos="24" show="0.000015000"/>
    </field>
    <field name="tcp.analysis" showname="SEQ/ACK analysis" size="0" pos="24" show="" value="">
      <field name="tcp.analysis.acks_frame" showname="This is an ACK to the segment in frame: 4" size="0" pos="24" show="4"/>
      <field name="tcp.analysis.ack_rtt" showname="The RTT to ACK the segment was: 26.000 microseconds" size="0" pos="24" show="0.000026000"/>
      <field name="tcp.analysis.initial_rtt" showname="iRTT: 173.000 microseconds" size="0" pos="24" show="0.000173000"/>
    </field>
    <field name="tcp.stream.client.contiguity_count" showname="Client Contiguous Streams: 1" size="0" pos="24" show="1"/>
    <field name="tcp.stream.server.contiguity_count" showname="Server Contiguous Streams: 1" size="0" pos="24" show="1"/>
  </proto>
</packet>


<packet>
  <proto name="geninfo" pos="0" showname="General information" size="56">
    <field name="num" pos="0" show="8" showname="Number" value="8" size="56"/>
    <field name="len" pos="0" show="56" showname="Frame Length" value="38" size="56"/>
    <field name="caplen" pos="0" show="56" showname="Captured Length" value="38" size="56"/>
    <field name="timestamp" pos="0" show="Sep 14, 2026 06:56:24.059279000 MSK" showname="Captured Time" value="1789358184.059279000" size="56"/>
  </proto>
  <proto name="frame" showname="Frame 8: Packet, 56 bytes on wire (448 bits), 56 bytes captured (448 bits) on interface lo0, id 0" size="56" pos="0">
    <field name="frame.section_number" showname="Section number: 1" size="0" pos="0" show="1"/>
    <field name="frame.interface_id" showname="Interface id: 0 (lo0)" size="0" pos="0" show="0">
      <field name="frame.interface_name" showname="Interface name: lo0" size="0" pos="0" show="lo0"/>
      <field name="frame.interface_description" showname="Interface description: Loopback" size="0" pos="0" show="Loopback"/>
    </field>
    <field name="frame.encap_type" showname="Encapsulation type: NULL/Loopback (15)" size="0" pos="0" show="15"/>
    <field name="frame.time" showname="Arrival Time: Sep 14, 2026 06:56:24.059279000 MSK" size="0" pos="0" show="2026-09-14T06:56:24.059279000+0300"/>
    <field name="frame.time_utc" showname="UTC Arrival Time: Sep 14, 2026 03:56:24.059279000 UTC" size="0" pos="0" show="2026-09-14T03:56:24.059279000Z"/>
    <field name="frame.time_epoch" showname="Epoch Arrival Time: 1789358184.059279000" size="0" pos="0" show="1789358184.059279000"/>
    <field name="frame.offset_shift" showname="Time shift for this packet: 0.000000000 seconds" size="0" pos="0" show="0.000000000"/>
    <field name="frame.time_delta" showname="Time delta from previous captured frame: 17.000 microseconds" size="0" pos="0" show="0.000017000"/>
    <field name="frame.time_delta_displayed" showname="Time delta from previous displayed frame: 17.000 microseconds" size="0" pos="0" show="0.000017000"/>
    <field name="frame.time_relative" showname="Time since reference or first frame: 242.000 microseconds" size="0" pos="0" show="0.000242000"/>
    <field name="frame.number" showname="Frame Number: 8" size="0" pos="0" show="8"/>
    <field name="frame.len" showname="Frame Length: 56 bytes (448 bits)" size="0" pos="0" show="56"/>
    <field name="frame.cap_len" showname="Capture Length: 56 bytes (448 bits)" size="0" pos="0" show="56"/>
    <field name="frame.marked" showname="Frame is marked: False" size="0" pos="0" show="False"/>
    <field name="frame.ignored" showname="Frame is ignored: False" size="0" pos="0" show="False"/>
    <field name="frame.protocols" showname="Protocols in frame: null:ip:tcp" size="0" pos="0" show="null:ip:tcp"/>
    <field name="frame.encoding" showname="Character encoding: ASCII (0)" size="0" pos="0" show="0"/>
  </proto>
  <proto name="null" showname="Null/Loopback" size="4" pos="0">
    <field name="null.family" showname="Family: IP (2)" size="4" pos="0" show="2" value="02000000"/>
  </proto>
  <proto name="ip" showname="Internet Protocol Version 4, Src: 127.0.0.1, Dst: 127.0.0.1" size="20" pos="4">
    <field name="ip.version" showname="0100 .... = Version: 4" size="1" pos="4" show="4" value="45"/>
    <field name="ip.hdr_len" showname=".... 0101 = Header Length: 20 bytes (5)" size="1" pos="4" show="20" value="45"/>
    <field name="ip.dsfield" showname="Differentiated Services Field: 0x00 (DSCP: CS0, ECN: Not-ECT)" size="1" pos="5" show="0x00" value="00">
      <field name="ip.dsfield.dscp" showname="0000 00.. = Differentiated Services Codepoint: Default (0)" size="1" pos="5" show="0" value="0" unmaskedvalue="00"/>
      <field name="ip.dsfield.ecn" showname=".... ..00 = Explicit Congestion Notification: Not ECN-Capable Transport (0)" size="1" pos="5" show="0" value="0" unmaskedvalue="00"/>
    </field>
    <field name="ip.len" showname="Total Length: 52" size="2" pos="6" show="52" value="0034"/>
    <field name="ip.id" showname="Identification: 0x0000 (0)" size="2" pos="8" show="0x0000" value="0000"/>
    <field name="ip.flags" showname="010. .... = Flags: 0x2, Don&#x27;t fragment" size="1" pos="10" show="0x02" value="2" unmaskedvalue="40">
      <field name="ip.flags.rb" showname="0... .... = Reserved bit: Not set" size="1" pos="10" show="False" value="0" unmaskedvalue="40"/>
      <field name="ip.flags.df" showname=".1.. .... = Don&#x27;t fragment: Set" size="1" pos="10" show="True" value="1" unmaskedvalue="40"/>
      <field name="ip.flags.mf" showname="..0. .... = More fragments: Not set" size="1" pos="10" show="False" value="0" unmaskedvalue="40"/>
    </field>
    <field name="ip.frag_offset" showname="...0 0000 0000 0000 = Fragment Offset: 0" size="2" pos="10" show="0" value="0" unmaskedvalue="4000"/>
    <field name="ip.ttl" showname="Time to Live: 64" size="1" pos="12" show="64" value="40"/>
    <field name="ip.proto" showname="Protocol: TCP (6)" size="1" pos="13" show="6" value="06"/>
    <field name="ip.checksum" showname="Header Checksum: 0x0000 [validation disabled]" size="2" pos="14" show="0x0000" value="0000"/>
    <field name="ip.checksum.status" showname="Header checksum status: Unverified" size="0" pos="14" show="2"/>
    <field name="ip.src" showname="Source Address: 127.0.0.1" size="4" pos="16" show="127.0.0.1" value="7f000001"/>
    <field name="ip.addr" showname="Source or Destination Address: 127.0.0.1" hide="yes" size="4" pos="16" show="127.0.0.1" value="7f000001"/>
    <field name="ip.src_host" showname="Source Host: 127.0.0.1" hide="yes" size="4" pos="16" show="127.0.0.1" value="7f000001"/>
    <field name="ip.host" showname="Source or Destination Host: 127.0.0.1" hide="yes" size="4" pos="16" show="127.0.0.1" value="7f000001"/>
    <field name="ip.dst" showname="Destination Address: 127.0.0.1" size="4" pos="20" show="127.0.0.1" value="7f000001"/>
    <field name="ip.addr" showname="Source or Destination Address: 127.0.0.1" hide="yes" size="4" pos="20" show="127.0.0.1" value="7f000001"/>
    <field name="ip.dst_host" showname="Destination Host: 127.0.0.1" hide="yes" size="4" pos="20" show="127.0.0.1" value="7f000001"/>
    <field name="ip.host" showname="Source or Destination Host: 127.0.0.1" hide="yes" size="4" pos="20" show="127.0.0.1" value="7f000001"/>
    <field name="ip.stream" showname="Stream index: 0" size="0" pos="24" show="0"/>
  </proto>
  <proto name="tcp" showname="Transmission Control Protocol, Src Port: 18123, Dst Port: 56080, Seq: 1, Ack: 323, Len: 0" size="32" pos="24">
    <field name="tcp.srcport" showname="Source Port: 18123" size="2" pos="24" show="18123" value="46cb"/>
    <field name="tcp.dstport" showname="Destination Port: 56080" size="2" pos="26" show="56080" value="db10"/>
    <field name="tcp.port" showname="Source or Destination Port: 18123" hide="yes" size="2" pos="24" show="18123" value="46cb"/>
    <field name="tcp.port" showname="Source or Destination Port: 56080" hide="yes" size="2" pos="26" show="56080" value="db10"/>
    <field name="tcp.stream" showname="Stream index: 0" size="0" pos="24" show="0"/>
    <field name="tcp.stream.pnum" showname="Stream Packet Number: 8" size="0" pos="24" show="8"/>
    <field name="tcp.completeness" showname="Conversation completeness: Incomplete, DATA (15)" size="0" pos="24" show="15">
      <field name="tcp.completeness.rst" showname="..0. .... = RST: Absent" size="0" pos="0" show="False"/>
      <field name="tcp.completeness.fin" showname="...0 .... = FIN: Absent" size="0" pos="0" show="False"/>
      <field name="tcp.completeness.data" showname=".... 1... = Data: Present" size="0" pos="0" show="True"/>
      <field name="tcp.completeness.ack" showname=".... .1.. = ACK: Present" size="0" pos="0" show="True"/>
      <field name="tcp.completeness.syn-ack" showname=".... ..1. = SYN-ACK: Present" size="0" pos="0" show="True"/>
      <field name="tcp.completeness.syn" showname=".... ...1 = SYN: Present" size="0" pos="0" show="True"/>
      <field name="tcp.completeness.str" showname="Completeness Flags: ··DASS" size="0" pos="24" show="··DASS"/>
    </field>
    <field name="tcp.len" showname="TCP Segment Len: 0" size="0" pos="24" show="0"/>
    <field name="tcp.seq" showname="Sequence Number: 1    (relative sequence number)" size="4" pos="28" show="1" value="a8ebad19"/>
    <field name="tcp.seq_raw" showname="Sequence Number (raw): 2834017561" size="4" pos="28" show="2834017561" value="a8ebad19"/>
    <field name="tcp.nxtseq" showname="Next Sequence Number: 1    (relative sequence number)" size="0" pos="24" show="1"/>
    <field name="tcp.ack" showname="Acknowledgment Number: 323    (relative ack number)" size="4" pos="32" show="323" value="34119949"/>
    <field name="tcp.ack_raw" showname="Acknowledgment number (raw): 873568585" size="4" pos="32" show="873568585" value="34119949"/>
    <field name="tcp.hdr_len" showname="1000 .... = Header Length: 32 bytes (8)" size="1" pos="36" show="32" value="80"/>
    <field name="tcp.flags" showname="Flags: 0x010 (ACK)" size="2" pos="36" show="0x0010" value="10" unmaskedvalue="8010">
      <field name="tcp.flags.res" showname="000. .... .... = Reserved: Not set" size="1" pos="36" show="False" value="0" unmaskedvalue="80"/>
      <field name="tcp.flags.ae" showname="...0 .... .... = Accurate ECN: Not set" size="1" pos="36" show="False" value="0" unmaskedvalue="80"/>
      <field name="tcp.flags.cwr" showname=".... 0... .... = Congestion Window Reduced: Not set" size="1" pos="37" show="False" value="0" unmaskedvalue="10"/>
      <field name="tcp.flags.ece" showname=".... .0.. .... = ECN-Echo: Not set" size="1" pos="37" show="False" value="0" unmaskedvalue="10"/>
      <field name="tcp.flags.urg" showname=".... ..0. .... = Urgent: Not set" size="1" pos="37" show="False" value="0" unmaskedvalue="10"/>
      <field name="tcp.flags.ack" showname=".... ...1 .... = Acknowledgment: Set" size="1" pos="37" show="True" value="1" unmaskedvalue="10"/>
      <field name="tcp.flags.push" showname=".... .... 0... = Push: Not set" size="1" pos="37" show="False" value="0" unmaskedvalue="10"/>
      <field name="tcp.flags.reset" showname=".... .... .0.. = Reset: Not set" size="1" pos="37" show="False" value="0" unmaskedvalue="10"/>
      <field name="tcp.flags.syn" showname=".... .... ..0. = Syn: Not set" size="1" pos="37" show="False" value="0" unmaskedvalue="10"/>
      <field name="tcp.flags.fin" showname=".... .... ...0 = Fin: Not set" size="1" pos="37" show="False" value="0" unmaskedvalue="10"/>
      <field name="tcp.flags.str" showname="TCP Flags: ·······A····" size="2" pos="36" show="·······A····" value="8010"/>
    </field>
    <field name="tcp.window_size_value" showname="Window: 6376" size="2" pos="38" show="6376" value="18e8"/>
    <field name="tcp.window_size" showname="Calculated window size: 408064" size="2" pos="38" show="408064" value="18e8"/>
    <field name="tcp.window_size_scalefactor" showname="Window size scaling factor: 64" size="2" pos="38" show="64" value="18e8"/>
    <field name="tcp.checksum" showname="Checksum: 0xfe28 [unverified]" size="2" pos="40" show="0xfe28" value="fe28"/>
    <field name="tcp.checksum.status" showname="Checksum Status: Unverified" size="0" pos="40" show="2"/>
    <field name="tcp.urgent_pointer" showname="Urgent Pointer: 0" size="2" pos="42" show="0" value="0000"/>
    <field name="tcp.options" showname="Options: (12 bytes), No-Operation (NOP), No-Operation (NOP), Timestamps" size="12" pos="44" show="01:01:08:0a:94:78:ca:cc:87:12:aa:50" value="0101080a9478cacc8712aa50">
      <field name="tcp.options.nop" showname="TCP Option - No-Operation (NOP)" size="1" pos="44" show="01" value="01">
        <field name="tcp.option_kind" showname="Kind: No-Operation (1)" size="1" pos="44" show="1" value="01"/>
      </field>
      <field name="tcp.options.nop" showname="TCP Option - No-Operation (NOP)" size="1" pos="45" show="01" value="01">
        <field name="tcp.option_kind" showname="Kind: No-Operation (1)" size="1" pos="45" show="1" value="01"/>
      </field>
      <field name="tcp.options.timestamp" showname="TCP Option - Timestamps: TSval 2490944204, TSecr 2266147408" size="10" pos="46" show="08:0a:94:78:ca:cc:87:12:aa:50" value="080a9478cacc8712aa50">
        <field name="tcp.option_kind" showname="Kind: Time Stamp Option (8)" size="1" pos="46" show="8" value="08"/>
        <field name="tcp.option_len" showname="Length: 10" size="1" pos="47" show="10" value="0a"/>
        <field name="tcp.options.timestamp.tsval" showname="Timestamp value: 2490944204" size="4" pos="48" show="2490944204" value="9478cacc"/>
        <field name="tcp.options.timestamp.tsecr" showname="Timestamp echo reply: 2266147408" size="4" pos="52" show="2266147408" value="8712aa50"/>
      </field>
    </field>
    <field name="" show="Timestamps" size="0" pos="24">
      <field name="tcp.time_relative" showname="Time since first frame in this TCP stream: 242.000 microseconds" size="0" pos="24" show="0.000242000"/>
      <field name="tcp.time_delta" showname="Time since previous frame in this TCP stream: 17.000 microseconds" size="0" pos="24" show="0.000017000"/>
    </field>
    <field name="tcp.analysis" showname="SEQ/ACK analysis" size="0" pos="24" show="" value="">
      <field name="tcp.analysis.acks_frame" showname="This is an ACK to the segment in frame: 6" size="0" pos="24" show="6"/>
      <field name="tcp.analysis.ack_rtt" showname="The RTT to ACK the segment was: 32.000 microseconds" size="0" pos="24" show="0.000032000"/>
      <field name="tcp.analysis.initial_rtt" showname="iRTT: 173.000 microseconds" size="0" pos="24" show="0.000173000"/>
    </field>
    <field name="tcp.stream.client.contiguity_count" showname="Client Contiguous Streams: 1" size="0" pos="24" show="1"/>
    <field name="tcp.stream.server.contiguity_count" showname="Server Contiguous Streams: 1" size="0" pos="24" show="1"/>
  </proto>
</packet>


<packet>
  <proto name="geninfo" pos="0" showname="General information" size="961">
    <field name="num" pos="0" show="9" showname="Number" value="9" size="961"/>
    <field name="len" pos="0" show="961" showname="Frame Length" value="3c1" size="961"/>
    <field name="caplen" pos="0" show="961" showname="Captured Length" value="3c1" size="961"/>
    <field name="timestamp" pos="0" show="Sep 14, 2026 06:56:24.069746000 MSK" showname="Captured Time" value="1789358184.069746000" size="961"/>
  </proto>
  <proto name="frame" showname="Frame 9: Packet, 961 bytes on wire (7688 bits), 961 bytes captured (7688 bits) on interface lo0, id 0" size="961" pos="0">
    <field name="frame.section_number" showname="Section number: 1" size="0" pos="0" show="1"/>
    <field name="frame.interface_id" showname="Interface id: 0 (lo0)" size="0" pos="0" show="0">
      <field name="frame.interface_name" showname="Interface name: lo0" size="0" pos="0" show="lo0"/>
      <field name="frame.interface_description" showname="Interface description: Loopback" size="0" pos="0" show="Loopback"/>
    </field>
    <field name="frame.encap_type" showname="Encapsulation type: NULL/Loopback (15)" size="0" pos="0" show="15"/>
    <field name="frame.time" showname="Arrival Time: Sep 14, 2026 06:56:24.069746000 MSK" size="0" pos="0" show="2026-09-14T06:56:24.069746000+0300"/>
    <field name="frame.time_utc" showname="UTC Arrival Time: Sep 14, 2026 03:56:24.069746000 UTC" size="0" pos="0" show="2026-09-14T03:56:24.069746000Z"/>
    <field name="frame.time_epoch" showname="Epoch Arrival Time: 1789358184.069746000" size="0" pos="0" show="1789358184.069746000"/>
    <field name="frame.offset_shift" showname="Time shift for this packet: 0.000000000 seconds" size="0" pos="0" show="0.000000000"/>
    <field name="frame.time_delta" showname="Time delta from previous captured frame: 10.467000 milliseconds" size="0" pos="0" show="0.010467000"/>
    <field name="frame.time_delta_displayed" showname="Time delta from previous displayed frame: 10.467000 milliseconds" size="0" pos="0" show="0.010467000"/>
    <field name="frame.time_relative" showname="Time since reference or first frame: 10.709000 milliseconds" size="0" pos="0" show="0.010709000"/>
    <field name="frame.number" showname="Frame Number: 9" size="0" pos="0" show="9"/>
    <field name="frame.len" showname="Frame Length: 961 bytes (7688 bits)" size="0" pos="0" show="961"/>
    <field name="frame.cap_len" showname="Capture Length: 961 bytes (7688 bits)" size="0" pos="0" show="961"/>
    <field name="frame.marked" showname="Frame is marked: False" size="0" pos="0" show="False"/>
    <field name="frame.ignored" showname="Frame is ignored: False" size="0" pos="0" show="False"/>
    <field name="frame.protocols" showname="Protocols in frame: null:ip:tcp" size="0" pos="0" show="null:ip:tcp"/>
    <field name="frame.encoding" showname="Character encoding: ASCII (0)" size="0" pos="0" show="0"/>
  </proto>
  <proto name="null" showname="Null/Loopback" size="4" pos="0">
    <field name="null.family" showname="Family: IP (2)" size="4" pos="0" show="2" value="02000000"/>
  </proto>
  <proto name="ip" showname="Internet Protocol Version 4, Src: 127.0.0.1, Dst: 127.0.0.1" size="20" pos="4">
    <field name="ip.version" showname="0100 .... = Version: 4" size="1" pos="4" show="4" value="45"/>
    <field name="ip.hdr_len" showname=".... 0101 = Header Length: 20 bytes (5)" size="1" pos="4" show="20" value="45"/>
    <field name="ip.dsfield" showname="Differentiated Services Field: 0x00 (DSCP: CS0, ECN: Not-ECT)" size="1" pos="5" show="0x00" value="00">
      <field name="ip.dsfield.dscp" showname="0000 00.. = Differentiated Services Codepoint: Default (0)" size="1" pos="5" show="0" value="0" unmaskedvalue="00"/>
      <field name="ip.dsfield.ecn" showname=".... ..00 = Explicit Congestion Notification: Not ECN-Capable Transport (0)" size="1" pos="5" show="0" value="0" unmaskedvalue="00"/>
    </field>
    <field name="ip.len" showname="Total Length: 957" size="2" pos="6" show="957" value="03bd"/>
    <field name="ip.id" showname="Identification: 0x0000 (0)" size="2" pos="8" show="0x0000" value="0000"/>
    <field name="ip.flags" showname="010. .... = Flags: 0x2, Don&#x27;t fragment" size="1" pos="10" show="0x02" value="2" unmaskedvalue="40">
      <field name="ip.flags.rb" showname="0... .... = Reserved bit: Not set" size="1" pos="10" show="False" value="0" unmaskedvalue="40"/>
      <field name="ip.flags.df" showname=".1.. .... = Don&#x27;t fragment: Set" size="1" pos="10" show="True" value="1" unmaskedvalue="40"/>
      <field name="ip.flags.mf" showname="..0. .... = More fragments: Not set" size="1" pos="10" show="False" value="0" unmaskedvalue="40"/>
    </field>
    <field name="ip.frag_offset" showname="...0 0000 0000 0000 = Fragment Offset: 0" size="2" pos="10" show="0" value="0" unmaskedvalue="4000"/>
    <field name="ip.ttl" showname="Time to Live: 64" size="1" pos="12" show="64" value="40"/>
    <field name="ip.proto" showname="Protocol: TCP (6)" size="1" pos="13" show="6" value="06"/>
    <field name="ip.checksum" showname="Header Checksum: 0x0000 [validation disabled]" size="2" pos="14" show="0x0000" value="0000"/>
    <field name="ip.checksum.status" showname="Header checksum status: Unverified" size="0" pos="14" show="2"/>
    <field name="ip.src" showname="Source Address: 127.0.0.1" size="4" pos="16" show="127.0.0.1" value="7f000001"/>
    <field name="ip.addr" showname="Source or Destination Address: 127.0.0.1" hide="yes" size="4" pos="16" show="127.0.0.1" value="7f000001"/>
    <field name="ip.src_host" showname="Source Host: 127.0.0.1" hide="yes" size="4" pos="16" show="127.0.0.1" value="7f000001"/>
    <field name="ip.host" showname="Source or Destination Host: 127.0.0.1" hide="yes" size="4" pos="16" show="127.0.0.1" value="7f000001"/>
    <field name="ip.dst" showname="Destination Address: 127.0.0.1" size="4" pos="20" show="127.0.0.1" value="7f000001"/>
    <field name="ip.addr" showname="Source or Destination Address: 127.0.0.1" hide="yes" size="4" pos="20" show="127.0.0.1" value="7f000001"/>
    <field name="ip.dst_host" showname="Destination Host: 127.0.0.1" hide="yes" size="4" pos="20" show="127.0.0.1" value="7f000001"/>
    <field name="ip.host" showname="Source or Destination Host: 127.0.0.1" hide="yes" size="4" pos="20" show="127.0.0.1" value="7f000001"/>
    <field name="ip.stream" showname="Stream index: 0" size="0" pos="24" show="0"/>
  </proto>
  <proto name="tcp" showname="Transmission Control Protocol, Src Port: 18123, Dst Port: 56080, Seq: 1, Ack: 323, Len: 905" size="32" pos="24">
    <field name="tcp.srcport" showname="Source Port: 18123" size="2" pos="24" show="18123" value="46cb"/>
    <field name="tcp.dstport" showname="Destination Port: 56080" size="2" pos="26" show="56080" value="db10"/>
    <field name="tcp.port" showname="Source or Destination Port: 18123" hide="yes" size="2" pos="24" show="18123" value="46cb"/>
    <field name="tcp.port" showname="Source or Destination Port: 56080" hide="yes" size="2" pos="26" show="56080" value="db10"/>
    <field name="tcp.stream" showname="Stream index: 0" size="0" pos="24" show="0"/>
    <field name="tcp.stream.pnum" showname="Stream Packet Number: 9" size="0" pos="24" show="9"/>
    <field name="tcp.completeness" showname="Conversation completeness: Incomplete, DATA (15)" size="0" pos="24" show="15">
      <field name="tcp.completeness.rst" showname="..0. .... = RST: Absent" size="0" pos="0" show="False"/>
      <field name="tcp.completeness.fin" showname="...0 .... = FIN: Absent" size="0" pos="0" show="False"/>
      <field name="tcp.completeness.data" showname=".... 1... = Data: Present" size="0" pos="0" show="True"/>
      <field name="tcp.completeness.ack" showname=".... .1.. = ACK: Present" size="0" pos="0" show="True"/>
      <field name="tcp.completeness.syn-ack" showname=".... ..1. = SYN-ACK: Present" size="0" pos="0" show="True"/>
      <field name="tcp.completeness.syn" showname=".... ...1 = SYN: Present" size="0" pos="0" show="True"/>
      <field name="tcp.completeness.str" showname="Completeness Flags: ··DASS" size="0" pos="24" show="··DASS"/>
    </field>
    <field name="tcp.len" showname="TCP Segment Len: 905" size="0" pos="24" show="905"/>
    <field name="tcp.seq" showname="Sequence Number: 1    (relative sequence number)" size="4" pos="28" show="1" value="a8ebad19"/>
    <field name="tcp.seq_raw" showname="Sequence Number (raw): 2834017561" size="4" pos="28" show="2834017561" value="a8ebad19"/>
    <field name="tcp.nxtseq" showname="Next Sequence Number: 906    (relative sequence number)" size="0" pos="24" show="906"/>
    <field name="tcp.ack" showname="Acknowledgment Number: 323    (relative ack number)" size="4" pos="32" show="323" value="34119949"/>
    <field name="tcp.ack_raw" showname="Acknowledgment number (raw): 873568585" size="4" pos="32" show="873568585" value="34119949"/>
    <field name="tcp.hdr_len" showname="1000 .... = Header Length: 32 bytes (8)" size="1" pos="36" show="32" value="80"/>
    <field name="tcp.flags" showname="Flags: 0x018 (PSH, ACK)" size="2" pos="36" show="0x0018" value="18" unmaskedvalue="8018">
      <field name="tcp.flags.res" showname="000. .... .... = Reserved: Not set" size="1" pos="36" show="False" value="0" unmaskedvalue="80"/>
      <field name="tcp.flags.ae" showname="...0 .... .... = Accurate ECN: Not set" size="1" pos="36" show="False" value="0" unmaskedvalue="80"/>
      <field name="tcp.flags.cwr" showname=".... 0... .... = Congestion Window Reduced: Not set" size="1" pos="37" show="False" value="0" unmaskedvalue="18"/>
      <field name="tcp.flags.ece" showname=".... .0.. .... = ECN-Echo: Not set" size="1" pos="37" show="False" value="0" unmaskedvalue="18"/>
      <field name="tcp.flags.urg" showname=".... ..0. .... = Urgent: Not set" size="1" pos="37" show="False" value="0" unmaskedvalue="18"/>
      <field name="tcp.flags.ack" showname=".... ...1 .... = Acknowledgment: Set" size="1" pos="37" show="True" value="1" unmaskedvalue="18"/>
      <field name="tcp.flags.push" showname=".... .... 1... = Push: Set" size="1" pos="37" show="True" value="1" unmaskedvalue="18"/>
      <field name="tcp.flags.reset" showname=".... .... .0.. = Reset: Not set" size="1" pos="37" show="False" value="0" unmaskedvalue="18"/>
      <field name="tcp.flags.syn" showname=".... .... ..0. = Syn: Not set" size="1" pos="37" show="False" value="0" unmaskedvalue="18"/>
      <field name="tcp.flags.fin" showname=".... .... ...0 = Fin: Not set" size="1" pos="37" show="False" value="0" unmaskedvalue="18"/>
      <field name="tcp.flags.str" showname="TCP Flags: ·······AP···" size="2" pos="36" show="·······AP···" value="8018"/>
    </field>
    <field name="tcp.window_size_value" showname="Window: 6376" size="2" pos="38" show="6376" value="18e8"/>
    <field name="tcp.window_size" showname="Calculated window size: 408064" size="2" pos="38" show="408064" value="18e8"/>
    <field name="tcp.window_size_scalefactor" showname="Window size scaling factor: 64" size="2" pos="38" show="64" value="18e8"/>
    <field name="tcp.checksum" showname="Checksum: 0x01b2 [unverified]" size="2" pos="40" show="0x01b2" value="01b2"/>
    <field name="tcp.checksum.status" showname="Checksum Status: Unverified" size="0" pos="40" show="2"/>
    <field name="tcp.urgent_pointer" showname="Urgent Pointer: 0" size="2" pos="42" show="0" value="0000"/>
    <field name="tcp.options" showname="Options: (12 bytes), No-Operation (NOP), No-Operation (NOP), Timestamps" size="12" pos="44" show="01:01:08:0a:94:78:ca:d7:87:12:aa:50" value="0101080a9478cad78712aa50">
      <field name="tcp.options.nop" showname="TCP Option - No-Operation (NOP)" size="1" pos="44" show="01" value="01">
        <field name="tcp.option_kind" showname="Kind: No-Operation (1)" size="1" pos="44" show="1" value="01"/>
      </field>
      <field name="tcp.options.nop" showname="TCP Option - No-Operation (NOP)" size="1" pos="45" show="01" value="01">
        <field name="tcp.option_kind" showname="Kind: No-Operation (1)" size="1" pos="45" show="1" value="01"/>
      </field>
      <field name="tcp.options.timestamp" showname="TCP Option - Timestamps: TSval 2490944215, TSecr 2266147408" size="10" pos="46" show="08:0a:94:78:ca:d7:87:12:aa:50" value="080a9478cad78712aa50">
        <field name="tcp.option_kind" showname="Kind: Time Stamp Option (8)" size="1" pos="46" show="8" value="08"/>
        <field name="tcp.option_len" showname="Length: 10" size="1" pos="47" show="10" value="0a"/>
        <field name="tcp.options.timestamp.tsval" showname="Timestamp value: 2490944215" size="4" pos="48" show="2490944215" value="9478cad7"/>
        <field name="tcp.options.timestamp.tsecr" showname="Timestamp echo reply: 2266147408" size="4" pos="52" show="2266147408" value="8712aa50"/>
      </field>
    </field>
    <field name="" show="Timestamps" size="0" pos="24">
      <field name="tcp.time_relative" showname="Time since first frame in this TCP stream: 10.709000 milliseconds" size="0" pos="24" show="0.010709000"/>
      <field name="tcp.time_delta" showname="Time since previous frame in this TCP stream: 10.467000 milliseconds" size="0" pos="24" show="0.010467000"/>
    </field>
    <field name="tcp.analysis" showname="SEQ/ACK analysis" size="0" pos="24" show="" value="">
      <field name="tcp.analysis.initial_rtt" showname="iRTT: 173.000 microseconds" size="0" pos="24" show="0.000173000"/>
      <field name="tcp.analysis.bytes_in_flight" showname="Bytes in flight: 905" size="0" pos="24" show="905"/>
      <field name="tcp.analysis.push_bytes_sent" showname="Bytes sent since last PSH flag: 905" size="0" pos="24" show="905"/>
    </field>
    <field name="tcp.stream.client.contiguity_count" showname="Client Contiguous Streams: 1" size="0" pos="24" show="1"/>
    <field name="tcp.stream.server.contiguity_count" showname="Server Contiguous Streams: 1" size="0" pos="24" show="1"/>
    <field name="tcp.payload" showname="TCP payload (905 bytes)" size="905" pos="56" show="48:54:54:50:2f:31:2e:31:20:32:30:30:20:4f:4b:0d:0a:58:2d:43:6c:69:63:6b:48:6f:75:73:65:2d:53:75:6d:6d:61:72:79:3a:20:7b:22:72:65:61:64:5f:72:6f:77:73:22:3a:22:34:22:2c:22:72:65:61:64:5f:62:79:74:65:73:22:3a:22:31:31:36:22:2c:22:77:72:69:74:74:65:6e:5f:72:6f:77:73:22:3a:22:30:22:2c:22:77:72:69:74:74:65:6e:5f:62:79:74:65:73:22:3a:22:30:22:2c:22:74:6f:74:61:6c:5f:72:6f:77:73:5f:74:6f:5f:72:65:61:64:22:3a:22:34:22:2c:22:72:65:73:75:6c:74:5f:72:6f:77:73:22:3a:22:30:22:2c:22:72:65:73:75:6c:74:5f:62:79:74:65:73:22:3a:22:30:22:2c:22:65:6c:61:70:73:65:64:5f:6e:73:22:3a:22:32:37:31:38:30:30:30:22:2c:22:6d:65:6d:6f:72:79:5f:75:73:61:67:65:22:3a:22:31:31:34:32:30:31:35:22:7d:0d:0a:44:61:74:65:3a:20:4d:6f:6e:2c:20:31:34:20:53:65:70:20:32:30:32:36:20:30:33:3a:35:36:3a:32:34:20:47:4d:54:0d:0a:43:6f:6e:6e:65:63:74:69:6f:6e:3a:20:4b:65:65:70:2d:41:6c:69:76:65:0d:0a:43:6f:6e:74:65:6e:74:2d:54:79:70:65:3a:20:61:70:70:6c:69:63:61:74:69:6f:6e:2f:6f:63:74:65:74:2d:73:74:72:65:61:6d:0d:0a:41:63:63:65:73:73:2d:43:6f:6e:74:72:6f:6c:2d:45:78:70:6f:73:65:2d:48:65:61:64:65:72:73:3a:20:58:2d:43:6c:69:63:6b:48:6f:75:73:65:2d:51:75:65:72:79:2d:49:64:2c:58:2d:43:6c:69:63:6b:48:6f:75:73:65:2d:53:75:6d:6d:61:72:79:2c:58:2d:43:6c:69:63:6b:48:6f:75:73:65:2d:53:65:72:76:65:72:2d:44:69:73:70:6c:61:79:2d:4e:61:6d:65:2c:58:2d:43:6c:69:63:6b:48:6f:75:73:65:2d:46:6f:72:6d:61:74:2c:58:2d:43:6c:69:63:6b:48:6f:75:73:65:2d:54:69:6d:65:7a:6f:6e:65:2c:58:2d:43:6c:69:63:6b:48:6f:75:73:65:2d:45:78:63:65:70:74:69:6f:6e:2d:43:6f:64:65:2c:58:2d:43:6c:69:63:6b:48:6f:75:73:65:2d:45:78:63:65:70:74:69:6f:6e:2d:54:61:67:0d:0a:58:2d:43:6c:69:63:6b:48:6f:75:73:65:2d:53:65:72:76:65:72:2d:44:69:73:70:6c:61:79:2d:4e:61:6d:65:3a:20:65:33:32:64:61:61:36:32:38:38:65:30:0d:0a:54:72:61:6e:73:66:65:72:2d:45:6e:63:6f:64:69:6e:67:3a:20:63:68:75:6e:6b:65:64:0d:0a:58:2d:43:6c:69:63:6b:48:6f:75:73:65:2d:51:75:65:72:79:2d:49:64:3a:20:37:39:36:61:33:62:38:30:2d:38:65:37:61:2d:34:61:64:33:2d:62:30:39:30:2d:35:35:30:33:35:62:64:36:33:38:62:36:0d:0a:58:2d:43:6c:69:63:6b:48:6f:75:73:65:2d:46:6f:72:6d:61:74:3a:20:52:6f:77:42:69:6e:61:72:79:0d:0a:58:2d:43:6c:69:63:6b:48:6f:75:73:65:2d:54:69:6d:65:7a:6f:6e:65:3a:20:55:54:43:0d:0a:4b:65:65:70:2d:41:6c:69:76:65:3a:20:74:69:6d:65:6f:75:74:3d:33:30:2c:20:6d:61:78:3d:39:39:39:39:0d:0a:58:2d:43:6c:69:63:6b:48:6f:75:73:65:2d:45:78:63:65:70:74:69:6f:6e:2d:54:61:67:3a:20:6e:68:68:77:67:7a:7a:62:66:6f:63:79:74:71:71:6e:0d:0a:0d:0a:35:38:0d:0a:09:53:6d:61:72:74:44:61:74:61:00:ec:ed:75:3b:05:06:00:00:00:00:00:09:53:6d:61:72:74:44:61:74:61:00:91:b5:e9:98:21:06:00:01:00:00:00:09:53:6d:61:72:74:44:61:74:61:00:a8:db:65:66:40:06:00:00:00:00:00:09:53:6d:61:72:74:44:61:74:61:00:da:20:f7:23:5c:06:00:01:00:00:00:0d:0a" value="485454502f312e3120323030204f4b0d0a582d436c69636b486f7573652d53756d6d6172793a207b22726561645f726f7773223a2234222c22726561645f6279746573223a22313136222c227772697474656e5f726f7773223a2230222c227772697474656e5f6279746573223a2230222c22746f74616c5f726f77735f746f5f72656164223a2234222c22726573756c745f726f7773223a2230222c22726573756c745f6279746573223a2230222c22656c61707365645f6e73223a2232373138303030222c226d656d6f72795f7573616765223a2231313432303135227d0d0a446174653a204d6f6e2c2031342053657020323032362030333a35363a323420474d540d0a436f6e6e656374696f6e3a204b6565702d416c6976650d0a436f6e74656e742d547970653a206170706c69636174696f6e2f6f637465742d73747265616d0d0a4163636573732d436f6e74726f6c2d4578706f73652d486561646572733a20582d436c69636b486f7573652d51756572792d49642c582d436c69636b486f7573652d53756d6d6172792c582d436c69636b486f7573652d5365727665722d446973706c61792d4e616d652c582d436c69636b486f7573652d466f726d61742c582d436c69636b486f7573652d54696d657a6f6e652c582d436c69636b486f7573652d457863657074696f6e2d436f64652c582d436c69636b486f7573652d457863657074696f6e2d5461670d0a582d436c69636b486f7573652d5365727665722d446973706c61792d4e616d653a206533326461613632383865300d0a5472616e736665722d456e636f64696e673a206368756e6b65640d0a582d436c69636b486f7573652d51756572792d49643a2037393661336238302d386537612d346164332d623039302d3535303335626436333862360d0a582d436c69636b486f7573652d466f726d61743a20526f7742696e6172790d0a582d436c69636b486f7573652d54696d657a6f6e653a205554430d0a4b6565702d416c6976653a2074696d656f75743d33302c206d61783d393939390d0a582d436c69636b486f7573652d457863657074696f6e2d5461673a206e686877677a7a62666f63797471716e0d0a0d0a35380d0a09536d6172744461746100eced753b0506000000000009536d617274446174610091b5e9982106000100000009536d6172744461746100a8db65664006000000000009536d6172744461746100da20f7235c0600010000000d0a"/>
    <field name="tcp.segment_data" showname="TCP segment data (905 bytes)" size="905" pos="56" show="48:54:54:50:2f:31:2e:31:20:32:30:30:20:4f:4b:0d:0a:58:2d:43:6c:69:63:6b:48:6f:75:73:65:2d:53:75:6d:6d:61:72:79:3a:20:7b:22:72:65:61:64:5f:72:6f:77:73:22:3a:22:34:22:2c:22:72:65:61:64:5f:62:79:74:65:73:22:3a:22:31:31:36:22:2c:22:77:72:69:74:74:65:6e:5f:72:6f:77:73:22:3a:22:30:22:2c:22:77:72:69:74:74:65:6e:5f:62:79:74:65:73:22:3a:22:30:22:2c:22:74:6f:74:61:6c:5f:72:6f:77:73:5f:74:6f:5f:72:65:61:64:22:3a:22:34:22:2c:22:72:65:73:75:6c:74:5f:72:6f:77:73:22:3a:22:30:22:2c:22:72:65:73:75:6c:74:5f:62:79:74:65:73:22:3a:22:30:22:2c:22:65:6c:61:70:73:65:64:5f:6e:73:22:3a:22:32:37:31:38:30:30:30:22:2c:22:6d:65:6d:6f:72:79:5f:75:73:61:67:65:22:3a:22:31:31:34:32:30:31:35:22:7d:0d:0a:44:61:74:65:3a:20:4d:6f:6e:2c:20:31:34:20:53:65:70:20:32:30:32:36:20:30:33:3a:35:36:3a:32:34:20:47:4d:54:0d:0a:43:6f:6e:6e:65:63:74:69:6f:6e:3a:20:4b:65:65:70:2d:41:6c:69:76:65:0d:0a:43:6f:6e:74:65:6e:74:2d:54:79:70:65:3a:20:61:70:70:6c:69:63:61:74:69:6f:6e:2f:6f:63:74:65:74:2d:73:74:72:65:61:6d:0d:0a:41:63:63:65:73:73:2d:43:6f:6e:74:72:6f:6c:2d:45:78:70:6f:73:65:2d:48:65:61:64:65:72:73:3a:20:58:2d:43:6c:69:63:6b:48:6f:75:73:65:2d:51:75:65:72:79:2d:49:64:2c:58:2d:43:6c:69:63:6b:48:6f:75:73:65:2d:53:75:6d:6d:61:72:79:2c:58:2d:43:6c:69:63:6b:48:6f:75:73:65:2d:53:65:72:76:65:72:2d:44:69:73:70:6c:61:79:2d:4e:61:6d:65:2c:58:2d:43:6c:69:63:6b:48:6f:75:73:65:2d:46:6f:72:6d:61:74:2c:58:2d:43:6c:69:63:6b:48:6f:75:73:65:2d:54:69:6d:65:7a:6f:6e:65:2c:58:2d:43:6c:69:63:6b:48:6f:75:73:65:2d:45:78:63:65:70:74:69:6f:6e:2d:43:6f:64:65:2c:58:2d:43:6c:69:63:6b:48:6f:75:73:65:2d:45:78:63:65:70:74:69:6f:6e:2d:54:61:67:0d:0a:58:2d:43:6c:69:63:6b:48:6f:75:73:65:2d:53:65:72:76:65:72:2d:44:69:73:70:6c:61:79:2d:4e:61:6d:65:3a:20:65:33:32:64:61:61:36:32:38:38:65:30:0d:0a:54:72:61:6e:73:66:65:72:2d:45:6e:63:6f:64:69:6e:67:3a:20:63:68:75:6e:6b:65:64:0d:0a:58:2d:43:6c:69:63:6b:48:6f:75:73:65:2d:51:75:65:72:79:2d:49:64:3a:20:37:39:36:61:33:62:38:30:2d:38:65:37:61:2d:34:61:64:33:2d:62:30:39:30:2d:35:35:30:33:35:62:64:36:33:38:62:36:0d:0a:58:2d:43:6c:69:63:6b:48:6f:75:73:65:2d:46:6f:72:6d:61:74:3a:20:52:6f:77:42:69:6e:61:72:79:0d:0a:58:2d:43:6c:69:63:6b:48:6f:75:73:65:2d:54:69:6d:65:7a:6f:6e:65:3a:20:55:54:43:0d:0a:4b:65:65:70:2d:41:6c:69:76:65:3a:20:74:69:6d:65:6f:75:74:3d:33:30:2c:20:6d:61:78:3d:39:39:39:39:0d:0a:58:2d:43:6c:69:63:6b:48:6f:75:73:65:2d:45:78:63:65:70:74:69:6f:6e:2d:54:61:67:3a:20:6e:68:68:77:67:7a:7a:62:66:6f:63:79:74:71:71:6e:0d:0a:0d:0a:35:38:0d:0a:09:53:6d:61:72:74:44:61:74:61:00:ec:ed:75:3b:05:06:00:00:00:00:00:09:53:6d:61:72:74:44:61:74:61:00:91:b5:e9:98:21:06:00:01:00:00:00:09:53:6d:61:72:74:44:61:74:61:00:a8:db:65:66:40:06:00:00:00:00:00:09:53:6d:61:72:74:44:61:74:61:00:da:20:f7:23:5c:06:00:01:00:00:00:0d:0a" value="485454502f312e3120323030204f4b0d0a582d436c69636b486f7573652d53756d6d6172793a207b22726561645f726f7773223a2234222c22726561645f6279746573223a22313136222c227772697474656e5f726f7773223a2230222c227772697474656e5f6279746573223a2230222c22746f74616c5f726f77735f746f5f72656164223a2234222c22726573756c745f726f7773223a2230222c22726573756c745f6279746573223a2230222c22656c61707365645f6e73223a2232373138303030222c226d656d6f72795f7573616765223a2231313432303135227d0d0a446174653a204d6f6e2c2031342053657020323032362030333a35363a323420474d540d0a436f6e6e656374696f6e3a204b6565702d416c6976650d0a436f6e74656e742d547970653a206170706c69636174696f6e2f6f637465742d73747265616d0d0a4163636573732d436f6e74726f6c2d4578706f73652d486561646572733a20582d436c69636b486f7573652d51756572792d49642c582d436c69636b486f7573652d53756d6d6172792c582d436c69636b486f7573652d5365727665722d446973706c61792d4e616d652c582d436c69636b486f7573652d466f726d61742c582d436c69636b486f7573652d54696d657a6f6e652c582d436c69636b486f7573652d457863657074696f6e2d436f64652c582d436c69636b486f7573652d457863657074696f6e2d5461670d0a582d436c69636b486f7573652d5365727665722d446973706c61792d4e616d653a206533326461613632383865300d0a5472616e736665722d456e636f64696e673a206368756e6b65640d0a582d436c69636b486f7573652d51756572792d49643a2037393661336238302d386537612d346164332d623039302d3535303335626436333862360d0a582d436c69636b486f7573652d466f726d61743a20526f7742696e6172790d0a582d436c69636b486f7573652d54696d657a6f6e653a205554430d0a4b6565702d416c6976653a2074696d656f75743d33302c206d61783d393939390d0a582d436c69636b486f7573652d457863657074696f6e2d5461673a206e686877677a7a62666f63797471716e0d0a0d0a35380d0a09536d6172744461746100eced753b0506000000000009536d617274446174610091b5e9982106000100000009536d6172744461746100a8db65664006000000000009536d6172744461746100da20f7235c0600010000000d0a"/>
  </proto>
</packet>


<packet>
  <proto name="geninfo" pos="0" showname="General information" size="56">
    <field name="num" pos="0" show="10" showname="Number" value="a" size="56"/>
    <field name="len" pos="0" show="56" showname="Frame Length" value="38" size="56"/>
    <field name="caplen" pos="0" show="56" showname="Captured Length" value="38" size="56"/>
    <field name="timestamp" pos="0" show="Sep 14, 2026 06:56:24.069791000 MSK" showname="Captured Time" value="1789358184.069791000" size="56"/>
  </proto>
  <proto name="frame" showname="Frame 10: Packet, 56 bytes on wire (448 bits), 56 bytes captured (448 bits) on interface lo0, id 0" size="56" pos="0">
    <field name="frame.section_number" showname="Section number: 1" size="0" pos="0" show="1"/>
    <field name="frame.interface_id" showname="Interface id: 0 (lo0)" size="0" pos="0" show="0">
      <field name="frame.interface_name" showname="Interface name: lo0" size="0" pos="0" show="lo0"/>
      <field name="frame.interface_description" showname="Interface description: Loopback" size="0" pos="0" show="Loopback"/>
    </field>
    <field name="frame.encap_type" showname="Encapsulation type: NULL/Loopback (15)" size="0" pos="0" show="15"/>
    <field name="frame.time" showname="Arrival Time: Sep 14, 2026 06:56:24.069791000 MSK" size="0" pos="0" show="2026-09-14T06:56:24.069791000+0300"/>
    <field name="frame.time_utc" showname="UTC Arrival Time: Sep 14, 2026 03:56:24.069791000 UTC" size="0" pos="0" show="2026-09-14T03:56:24.069791000Z"/>
    <field name="frame.time_epoch" showname="Epoch Arrival Time: 1789358184.069791000" size="0" pos="0" show="1789358184.069791000"/>
    <field name="frame.offset_shift" showname="Time shift for this packet: 0.000000000 seconds" size="0" pos="0" show="0.000000000"/>
    <field name="frame.time_delta" showname="Time delta from previous captured frame: 45.000 microseconds" size="0" pos="0" show="0.000045000"/>
    <field name="frame.time_delta_displayed" showname="Time delta from previous displayed frame: 45.000 microseconds" size="0" pos="0" show="0.000045000"/>
    <field name="frame.time_relative" showname="Time since reference or first frame: 10.754000 milliseconds" size="0" pos="0" show="0.010754000"/>
    <field name="frame.number" showname="Frame Number: 10" size="0" pos="0" show="10"/>
    <field name="frame.len" showname="Frame Length: 56 bytes (448 bits)" size="0" pos="0" show="56"/>
    <field name="frame.cap_len" showname="Capture Length: 56 bytes (448 bits)" size="0" pos="0" show="56"/>
    <field name="frame.marked" showname="Frame is marked: False" size="0" pos="0" show="False"/>
    <field name="frame.ignored" showname="Frame is ignored: False" size="0" pos="0" show="False"/>
    <field name="frame.protocols" showname="Protocols in frame: null:ip:tcp" size="0" pos="0" show="null:ip:tcp"/>
    <field name="frame.encoding" showname="Character encoding: ASCII (0)" size="0" pos="0" show="0"/>
  </proto>
  <proto name="null" showname="Null/Loopback" size="4" pos="0">
    <field name="null.family" showname="Family: IP (2)" size="4" pos="0" show="2" value="02000000"/>
  </proto>
  <proto name="ip" showname="Internet Protocol Version 4, Src: 127.0.0.1, Dst: 127.0.0.1" size="20" pos="4">
    <field name="ip.version" showname="0100 .... = Version: 4" size="1" pos="4" show="4" value="45"/>
    <field name="ip.hdr_len" showname=".... 0101 = Header Length: 20 bytes (5)" size="1" pos="4" show="20" value="45"/>
    <field name="ip.dsfield" showname="Differentiated Services Field: 0x00 (DSCP: CS0, ECN: Not-ECT)" size="1" pos="5" show="0x00" value="00">
      <field name="ip.dsfield.dscp" showname="0000 00.. = Differentiated Services Codepoint: Default (0)" size="1" pos="5" show="0" value="0" unmaskedvalue="00"/>
      <field name="ip.dsfield.ecn" showname=".... ..00 = Explicit Congestion Notification: Not ECN-Capable Transport (0)" size="1" pos="5" show="0" value="0" unmaskedvalue="00"/>
    </field>
    <field name="ip.len" showname="Total Length: 52" size="2" pos="6" show="52" value="0034"/>
    <field name="ip.id" showname="Identification: 0x0000 (0)" size="2" pos="8" show="0x0000" value="0000"/>
    <field name="ip.flags" showname="010. .... = Flags: 0x2, Don&#x27;t fragment" size="1" pos="10" show="0x02" value="2" unmaskedvalue="40">
      <field name="ip.flags.rb" showname="0... .... = Reserved bit: Not set" size="1" pos="10" show="False" value="0" unmaskedvalue="40"/>
      <field name="ip.flags.df" showname=".1.. .... = Don&#x27;t fragment: Set" size="1" pos="10" show="True" value="1" unmaskedvalue="40"/>
      <field name="ip.flags.mf" showname="..0. .... = More fragments: Not set" size="1" pos="10" show="False" value="0" unmaskedvalue="40"/>
    </field>
    <field name="ip.frag_offset" showname="...0 0000 0000 0000 = Fragment Offset: 0" size="2" pos="10" show="0" value="0" unmaskedvalue="4000"/>
    <field name="ip.ttl" showname="Time to Live: 64" size="1" pos="12" show="64" value="40"/>
    <field name="ip.proto" showname="Protocol: TCP (6)" size="1" pos="13" show="6" value="06"/>
    <field name="ip.checksum" showname="Header Checksum: 0x0000 [validation disabled]" size="2" pos="14" show="0x0000" value="0000"/>
    <field name="ip.checksum.status" showname="Header checksum status: Unverified" size="0" pos="14" show="2"/>
    <field name="ip.src" showname="Source Address: 127.0.0.1" size="4" pos="16" show="127.0.0.1" value="7f000001"/>
    <field name="ip.addr" showname="Source or Destination Address: 127.0.0.1" hide="yes" size="4" pos="16" show="127.0.0.1" value="7f000001"/>
    <field name="ip.src_host" showname="Source Host: 127.0.0.1" hide="yes" size="4" pos="16" show="127.0.0.1" value="7f000001"/>
    <field name="ip.host" showname="Source or Destination Host: 127.0.0.1" hide="yes" size="4" pos="16" show="127.0.0.1" value="7f000001"/>
    <field name="ip.dst" showname="Destination Address: 127.0.0.1" size="4" pos="20" show="127.0.0.1" value="7f000001"/>
    <field name="ip.addr" showname="Source or Destination Address: 127.0.0.1" hide="yes" size="4" pos="20" show="127.0.0.1" value="7f000001"/>
    <field name="ip.dst_host" showname="Destination Host: 127.0.0.1" hide="yes" size="4" pos="20" show="127.0.0.1" value="7f000001"/>
    <field name="ip.host" showname="Source or Destination Host: 127.0.0.1" hide="yes" size="4" pos="20" show="127.0.0.1" value="7f000001"/>
    <field name="ip.stream" showname="Stream index: 0" size="0" pos="24" show="0"/>
  </proto>
  <proto name="tcp" showname="Transmission Control Protocol, Src Port: 56080, Dst Port: 18123, Seq: 323, Ack: 906, Len: 0" size="32" pos="24">
    <field name="tcp.srcport" showname="Source Port: 56080" size="2" pos="24" show="56080" value="db10"/>
    <field name="tcp.dstport" showname="Destination Port: 18123" size="2" pos="26" show="18123" value="46cb"/>
    <field name="tcp.port" showname="Source or Destination Port: 56080" hide="yes" size="2" pos="24" show="56080" value="db10"/>
    <field name="tcp.port" showname="Source or Destination Port: 18123" hide="yes" size="2" pos="26" show="18123" value="46cb"/>
    <field name="tcp.stream" showname="Stream index: 0" size="0" pos="24" show="0"/>
    <field name="tcp.stream.pnum" showname="Stream Packet Number: 10" size="0" pos="24" show="10"/>
    <field name="tcp.completeness" showname="Conversation completeness: Incomplete, DATA (15)" size="0" pos="24" show="15">
      <field name="tcp.completeness.rst" showname="..0. .... = RST: Absent" size="0" pos="0" show="False"/>
      <field name="tcp.completeness.fin" showname="...0 .... = FIN: Absent" size="0" pos="0" show="False"/>
      <field name="tcp.completeness.data" showname=".... 1... = Data: Present" size="0" pos="0" show="True"/>
      <field name="tcp.completeness.ack" showname=".... .1.. = ACK: Present" size="0" pos="0" show="True"/>
      <field name="tcp.completeness.syn-ack" showname=".... ..1. = SYN-ACK: Present" size="0" pos="0" show="True"/>
      <field name="tcp.completeness.syn" showname=".... ...1 = SYN: Present" size="0" pos="0" show="True"/>
      <field name="tcp.completeness.str" showname="Completeness Flags: ··DASS" size="0" pos="24" show="··DASS"/>
    </field>
    <field name="tcp.len" showname="TCP Segment Len: 0" size="0" pos="24" show="0"/>
    <field name="tcp.seq" showname="Sequence Number: 323    (relative sequence number)" size="4" pos="28" show="323" value="34119949"/>
    <field name="tcp.seq_raw" showname="Sequence Number (raw): 873568585" size="4" pos="28" show="873568585" value="34119949"/>
    <field name="tcp.nxtseq" showname="Next Sequence Number: 323    (relative sequence number)" size="0" pos="24" show="323"/>
    <field name="tcp.ack" showname="Acknowledgment Number: 906    (relative ack number)" size="4" pos="32" show="906" value="a8ebb0a2"/>
    <field name="tcp.ack_raw" showname="Acknowledgment number (raw): 2834018466" size="4" pos="32" show="2834018466" value="a8ebb0a2"/>
    <field name="tcp.hdr_len" showname="1000 .... = Header Length: 32 bytes (8)" size="1" pos="36" show="32" value="80"/>
    <field name="tcp.flags" showname="Flags: 0x010 (ACK)" size="2" pos="36" show="0x0010" value="10" unmaskedvalue="8010">
      <field name="tcp.flags.res" showname="000. .... .... = Reserved: Not set" size="1" pos="36" show="False" value="0" unmaskedvalue="80"/>
      <field name="tcp.flags.ae" showname="...0 .... .... = Accurate ECN: Not set" size="1" pos="36" show="False" value="0" unmaskedvalue="80"/>
      <field name="tcp.flags.cwr" showname=".... 0... .... = Congestion Window Reduced: Not set" size="1" pos="37" show="False" value="0" unmaskedvalue="10"/>
      <field name="tcp.flags.ece" showname=".... .0.. .... = ECN-Echo: Not set" size="1" pos="37" show="False" value="0" unmaskedvalue="10"/>
      <field name="tcp.flags.urg" showname=".... ..0. .... = Urgent: Not set" size="1" pos="37" show="False" value="0" unmaskedvalue="10"/>
      <field name="tcp.flags.ack" showname=".... ...1 .... = Acknowledgment: Set" size="1" pos="37" show="True" value="1" unmaskedvalue="10"/>
      <field name="tcp.flags.push" showname=".... .... 0... = Push: Not set" size="1" pos="37" show="False" value="0" unmaskedvalue="10"/>
      <field name="tcp.flags.reset" showname=".... .... .0.. = Reset: Not set" size="1" pos="37" show="False" value="0" unmaskedvalue="10"/>
      <field name="tcp.flags.syn" showname=".... .... ..0. = Syn: Not set" size="1" pos="37" show="False" value="0" unmaskedvalue="10"/>
      <field name="tcp.flags.fin" showname=".... .... ...0 = Fin: Not set" size="1" pos="37" show="False" value="0" unmaskedvalue="10"/>
      <field name="tcp.flags.str" showname="TCP Flags: ·······A····" size="2" pos="36" show="·······A····" value="8010"/>
    </field>
    <field name="tcp.window_size_value" showname="Window: 6366" size="2" pos="38" show="6366" value="18de"/>
    <field name="tcp.window_size" showname="Calculated window size: 407424" size="2" pos="38" show="407424" value="18de"/>
    <field name="tcp.window_size_scalefactor" showname="Window size scaling factor: 64" size="2" pos="38" show="64" value="18de"/>
    <field name="tcp.checksum" showname="Checksum: 0xfe28 [unverified]" size="2" pos="40" show="0xfe28" value="fe28"/>
    <field name="tcp.checksum.status" showname="Checksum Status: Unverified" size="0" pos="40" show="2"/>
    <field name="tcp.urgent_pointer" showname="Urgent Pointer: 0" size="2" pos="42" show="0" value="0000"/>
    <field name="tcp.options" showname="Options: (12 bytes), No-Operation (NOP), No-Operation (NOP), Timestamps" size="12" pos="44" show="01:01:08:0a:87:12:aa:5b:94:78:ca:d7" value="0101080a8712aa5b9478cad7">
      <field name="tcp.options.nop" showname="TCP Option - No-Operation (NOP)" size="1" pos="44" show="01" value="01">
        <field name="tcp.option_kind" showname="Kind: No-Operation (1)" size="1" pos="44" show="1" value="01"/>
      </field>
      <field name="tcp.options.nop" showname="TCP Option - No-Operation (NOP)" size="1" pos="45" show="01" value="01">
        <field name="tcp.option_kind" showname="Kind: No-Operation (1)" size="1" pos="45" show="1" value="01"/>
      </field>
      <field name="tcp.options.timestamp" showname="TCP Option - Timestamps: TSval 2266147419, TSecr 2490944215" size="10" pos="46" show="08:0a:87:12:aa:5b:94:78:ca:d7" value="080a8712aa5b9478cad7">
        <field name="tcp.option_kind" showname="Kind: Time Stamp Option (8)" size="1" pos="46" show="8" value="08"/>
        <field name="tcp.option_len" showname="Length: 10" size="1" pos="47" show="10" value="0a"/>
        <field name="tcp.options.timestamp.tsval" showname="Timestamp value: 2266147419" size="4" pos="48" show="2266147419" value="8712aa5b"/>
        <field name="tcp.options.timestamp.tsecr" showname="Timestamp echo reply: 2490944215" size="4" pos="52" show="2490944215" value="9478cad7"/>
      </field>
    </field>
    <field name="" show="Timestamps" size="0" pos="24">
      <field name="tcp.time_relative" showname="Time since first frame in this TCP stream: 10.754000 milliseconds" size="0" pos="24" show="0.010754000"/>
      <field name="tcp.time_delta" showname="Time since previous frame in this TCP stream: 45.000 microseconds" size="0" pos="24" show="0.000045000"/>
    </field>
    <field name="tcp.analysis" showname="SEQ/ACK analysis" size="0" pos="24" show="" value="">
      <field name="tcp.analysis.acks_frame" showname="This is an ACK to the segment in frame: 9" size="0" pos="24" show="9"/>
      <field name="tcp.analysis.ack_rtt" showname="The RTT to ACK the segment was: 45.000 microseconds" size="0" pos="24" show="0.000045000"/>
      <field name="tcp.analysis.initial_rtt" showname="iRTT: 173.000 microseconds" size="0" pos="24" show="0.000173000"/>
    </field>
    <field name="tcp.stream.client.contiguity_count" showname="Client Contiguous Streams: 1" size="0" pos="24" show="1"/>
    <field name="tcp.stream.server.contiguity_count" showname="Server Contiguous Streams: 1" size="0" pos="24" show="1"/>
  </proto>
</packet>


<packet>
  <proto name="geninfo" pos="0" showname="General information" size="61">
    <field name="num" pos="0" show="11" showname="Number" value="b" size="61"/>
    <field name="len" pos="0" show="61" showname="Frame Length" value="3d" size="61"/>
    <field name="caplen" pos="0" show="61" showname="Captured Length" value="3d" size="61"/>
    <field name="timestamp" pos="0" show="Sep 14, 2026 06:56:24.069988000 MSK" showname="Captured Time" value="1789358184.069988000" size="61"/>
  </proto>
  <proto name="frame" showname="Frame 11: Packet, 61 bytes on wire (488 bits), 61 bytes captured (488 bits) on interface lo0, id 0" size="61" pos="0">
    <field name="frame.section_number" showname="Section number: 1" size="0" pos="0" show="1"/>
    <field name="frame.interface_id" showname="Interface id: 0 (lo0)" size="0" pos="0" show="0">
      <field name="frame.interface_name" showname="Interface name: lo0" size="0" pos="0" show="lo0"/>
      <field name="frame.interface_description" showname="Interface description: Loopback" size="0" pos="0" show="Loopback"/>
    </field>
    <field name="frame.encap_type" showname="Encapsulation type: NULL/Loopback (15)" size="0" pos="0" show="15"/>
    <field name="frame.time" showname="Arrival Time: Sep 14, 2026 06:56:24.069988000 MSK" size="0" pos="0" show="2026-09-14T06:56:24.069988000+0300"/>
    <field name="frame.time_utc" showname="UTC Arrival Time: Sep 14, 2026 03:56:24.069988000 UTC" size="0" pos="0" show="2026-09-14T03:56:24.069988000Z"/>
    <field name="frame.time_epoch" showname="Epoch Arrival Time: 1789358184.069988000" size="0" pos="0" show="1789358184.069988000"/>
    <field name="frame.offset_shift" showname="Time shift for this packet: 0.000000000 seconds" size="0" pos="0" show="0.000000000"/>
    <field name="frame.time_delta" showname="Time delta from previous captured frame: 197.000 microseconds" size="0" pos="0" show="0.000197000"/>
    <field name="frame.time_delta_displayed" showname="Time delta from previous displayed frame: 197.000 microseconds" size="0" pos="0" show="0.000197000"/>
    <field name="frame.time_relative" showname="Time since reference or first frame: 10.951000 milliseconds" size="0" pos="0" show="0.010951000"/>
    <field name="frame.number" showname="Frame Number: 11" size="0" pos="0" show="11"/>
    <field name="frame.len" showname="Frame Length: 61 bytes (488 bits)" size="0" pos="0" show="61"/>
    <field name="frame.cap_len" showname="Capture Length: 61 bytes (488 bits)" size="0" pos="0" show="61"/>
    <field name="frame.marked" showname="Frame is marked: False" size="0" pos="0" show="False"/>
    <field name="frame.ignored" showname="Frame is ignored: False" size="0" pos="0" show="False"/>
    <field name="frame.protocols" showname="Protocols in frame: null:ip:tcp:http:data" size="0" pos="0" show="null:ip:tcp:http:data"/>
    <field name="frame.encoding" showname="Character encoding: ASCII (0)" size="0" pos="0" show="0"/>
  </proto>
  <proto name="null" showname="Null/Loopback" size="4" pos="0">
    <field name="null.family" showname="Family: IP (2)" size="4" pos="0" show="2" value="02000000"/>
  </proto>
  <proto name="ip" showname="Internet Protocol Version 4, Src: 127.0.0.1, Dst: 127.0.0.1" size="20" pos="4">
    <field name="ip.version" showname="0100 .... = Version: 4" size="1" pos="4" show="4" value="45"/>
    <field name="ip.hdr_len" showname=".... 0101 = Header Length: 20 bytes (5)" size="1" pos="4" show="20" value="45"/>
    <field name="ip.dsfield" showname="Differentiated Services Field: 0x00 (DSCP: CS0, ECN: Not-ECT)" size="1" pos="5" show="0x00" value="00">
      <field name="ip.dsfield.dscp" showname="0000 00.. = Differentiated Services Codepoint: Default (0)" size="1" pos="5" show="0" value="0" unmaskedvalue="00"/>
      <field name="ip.dsfield.ecn" showname=".... ..00 = Explicit Congestion Notification: Not ECN-Capable Transport (0)" size="1" pos="5" show="0" value="0" unmaskedvalue="00"/>
    </field>
    <field name="ip.len" showname="Total Length: 57" size="2" pos="6" show="57" value="0039"/>
    <field name="ip.id" showname="Identification: 0x0000 (0)" size="2" pos="8" show="0x0000" value="0000"/>
    <field name="ip.flags" showname="010. .... = Flags: 0x2, Don&#x27;t fragment" size="1" pos="10" show="0x02" value="2" unmaskedvalue="40">
      <field name="ip.flags.rb" showname="0... .... = Reserved bit: Not set" size="1" pos="10" show="False" value="0" unmaskedvalue="40"/>
      <field name="ip.flags.df" showname=".1.. .... = Don&#x27;t fragment: Set" size="1" pos="10" show="True" value="1" unmaskedvalue="40"/>
      <field name="ip.flags.mf" showname="..0. .... = More fragments: Not set" size="1" pos="10" show="False" value="0" unmaskedvalue="40"/>
    </field>
    <field name="ip.frag_offset" showname="...0 0000 0000 0000 = Fragment Offset: 0" size="2" pos="10" show="0" value="0" unmaskedvalue="4000"/>
    <field name="ip.ttl" showname="Time to Live: 64" size="1" pos="12" show="64" value="40"/>
    <field name="ip.proto" showname="Protocol: TCP (6)" size="1" pos="13" show="6" value="06"/>
    <field name="ip.checksum" showname="Header Checksum: 0x0000 [validation disabled]" size="2" pos="14" show="0x0000" value="0000"/>
    <field name="ip.checksum.status" showname="Header checksum status: Unverified" size="0" pos="14" show="2"/>
    <field name="ip.src" showname="Source Address: 127.0.0.1" size="4" pos="16" show="127.0.0.1" value="7f000001"/>
    <field name="ip.addr" showname="Source or Destination Address: 127.0.0.1" hide="yes" size="4" pos="16" show="127.0.0.1" value="7f000001"/>
    <field name="ip.src_host" showname="Source Host: 127.0.0.1" hide="yes" size="4" pos="16" show="127.0.0.1" value="7f000001"/>
    <field name="ip.host" showname="Source or Destination Host: 127.0.0.1" hide="yes" size="4" pos="16" show="127.0.0.1" value="7f000001"/>
    <field name="ip.dst" showname="Destination Address: 127.0.0.1" size="4" pos="20" show="127.0.0.1" value="7f000001"/>
    <field name="ip.addr" showname="Source or Destination Address: 127.0.0.1" hide="yes" size="4" pos="20" show="127.0.0.1" value="7f000001"/>
    <field name="ip.dst_host" showname="Destination Host: 127.0.0.1" hide="yes" size="4" pos="20" show="127.0.0.1" value="7f000001"/>
    <field name="ip.host" showname="Source or Destination Host: 127.0.0.1" hide="yes" size="4" pos="20" show="127.0.0.1" value="7f000001"/>
    <field name="ip.stream" showname="Stream index: 0" size="0" pos="24" show="0"/>
  </proto>
  <proto name="tcp" showname="Transmission Control Protocol, Src Port: 18123, Dst Port: 56080, Seq: 906, Ack: 323, Len: 5" size="32" pos="24">
    <field name="tcp.srcport" showname="Source Port: 18123" size="2" pos="24" show="18123" value="46cb"/>
    <field name="tcp.dstport" showname="Destination Port: 56080" size="2" pos="26" show="56080" value="db10"/>
    <field name="tcp.port" showname="Source or Destination Port: 18123" hide="yes" size="2" pos="24" show="18123" value="46cb"/>
    <field name="tcp.port" showname="Source or Destination Port: 56080" hide="yes" size="2" pos="26" show="56080" value="db10"/>
    <field name="tcp.stream" showname="Stream index: 0" size="0" pos="24" show="0"/>
    <field name="tcp.stream.pnum" showname="Stream Packet Number: 11" size="0" pos="24" show="11"/>
    <field name="tcp.completeness" showname="Conversation completeness: Incomplete, DATA (15)" size="0" pos="24" show="15">
      <field name="tcp.completeness.rst" showname="..0. .... = RST: Absent" size="0" pos="0" show="False"/>
      <field name="tcp.completeness.fin" showname="...0 .... = FIN: Absent" size="0" pos="0" show="False"/>
      <field name="tcp.completeness.data" showname=".... 1... = Data: Present" size="0" pos="0" show="True"/>
      <field name="tcp.completeness.ack" showname=".... .1.. = ACK: Present" size="0" pos="0" show="True"/>
      <field name="tcp.completeness.syn-ack" showname=".... ..1. = SYN-ACK: Present" size="0" pos="0" show="True"/>
      <field name="tcp.completeness.syn" showname=".... ...1 = SYN: Present" size="0" pos="0" show="True"/>
      <field name="tcp.completeness.str" showname="Completeness Flags: ··DASS" size="0" pos="24" show="··DASS"/>
    </field>
    <field name="tcp.len" showname="TCP Segment Len: 5" size="0" pos="24" show="5"/>
    <field name="tcp.seq" showname="Sequence Number: 906    (relative sequence number)" size="4" pos="28" show="906" value="a8ebb0a2"/>
    <field name="tcp.seq_raw" showname="Sequence Number (raw): 2834018466" size="4" pos="28" show="2834018466" value="a8ebb0a2"/>
    <field name="tcp.nxtseq" showname="Next Sequence Number: 911    (relative sequence number)" size="0" pos="24" show="911"/>
    <field name="tcp.ack" showname="Acknowledgment Number: 323    (relative ack number)" size="4" pos="32" show="323" value="34119949"/>
    <field name="tcp.ack_raw" showname="Acknowledgment number (raw): 873568585" size="4" pos="32" show="873568585" value="34119949"/>
    <field name="tcp.hdr_len" showname="1000 .... = Header Length: 32 bytes (8)" size="1" pos="36" show="32" value="80"/>
    <field name="tcp.flags" showname="Flags: 0x018 (PSH, ACK)" size="2" pos="36" show="0x0018" value="18" unmaskedvalue="8018">
      <field name="tcp.flags.res" showname="000. .... .... = Reserved: Not set" size="1" pos="36" show="False" value="0" unmaskedvalue="80"/>
      <field name="tcp.flags.ae" showname="...0 .... .... = Accurate ECN: Not set" size="1" pos="36" show="False" value="0" unmaskedvalue="80"/>
      <field name="tcp.flags.cwr" showname=".... 0... .... = Congestion Window Reduced: Not set" size="1" pos="37" show="False" value="0" unmaskedvalue="18"/>
      <field name="tcp.flags.ece" showname=".... .0.. .... = ECN-Echo: Not set" size="1" pos="37" show="False" value="0" unmaskedvalue="18"/>
      <field name="tcp.flags.urg" showname=".... ..0. .... = Urgent: Not set" size="1" pos="37" show="False" value="0" unmaskedvalue="18"/>
      <field name="tcp.flags.ack" showname=".... ...1 .... = Acknowledgment: Set" size="1" pos="37" show="True" value="1" unmaskedvalue="18"/>
      <field name="tcp.flags.push" showname=".... .... 1... = Push: Set" size="1" pos="37" show="True" value="1" unmaskedvalue="18"/>
      <field name="tcp.flags.reset" showname=".... .... .0.. = Reset: Not set" size="1" pos="37" show="False" value="0" unmaskedvalue="18"/>
      <field name="tcp.flags.syn" showname=".... .... ..0. = Syn: Not set" size="1" pos="37" show="False" value="0" unmaskedvalue="18"/>
      <field name="tcp.flags.fin" showname=".... .... ...0 = Fin: Not set" size="1" pos="37" show="False" value="0" unmaskedvalue="18"/>
      <field name="tcp.flags.str" showname="TCP Flags: ·······AP···" size="2" pos="36" show="·······AP···" value="8018"/>
    </field>
    <field name="tcp.window_size_value" showname="Window: 6376" size="2" pos="38" show="6376" value="18e8"/>
    <field name="tcp.window_size" showname="Calculated window size: 408064" size="2" pos="38" show="408064" value="18e8"/>
    <field name="tcp.window_size_scalefactor" showname="Window size scaling factor: 64" size="2" pos="38" show="64" value="18e8"/>
    <field name="tcp.checksum" showname="Checksum: 0xfe2d [unverified]" size="2" pos="40" show="0xfe2d" value="fe2d"/>
    <field name="tcp.checksum.status" showname="Checksum Status: Unverified" size="0" pos="40" show="2"/>
    <field name="tcp.urgent_pointer" showname="Urgent Pointer: 0" size="2" pos="42" show="0" value="0000"/>
    <field name="tcp.options" showname="Options: (12 bytes), No-Operation (NOP), No-Operation (NOP), Timestamps" size="12" pos="44" show="01:01:08:0a:94:78:ca:d7:87:12:aa:5b" value="0101080a9478cad78712aa5b">
      <field name="tcp.options.nop" showname="TCP Option - No-Operation (NOP)" size="1" pos="44" show="01" value="01">
        <field name="tcp.option_kind" showname="Kind: No-Operation (1)" size="1" pos="44" show="1" value="01"/>
      </field>
      <field name="tcp.options.nop" showname="TCP Option - No-Operation (NOP)" size="1" pos="45" show="01" value="01">
        <field name="tcp.option_kind" showname="Kind: No-Operation (1)" size="1" pos="45" show="1" value="01"/>
      </field>
      <field name="tcp.options.timestamp" showname="TCP Option - Timestamps: TSval 2490944215, TSecr 2266147419" size="10" pos="46" show="08:0a:94:78:ca:d7:87:12:aa:5b" value="080a9478cad78712aa5b">
        <field name="tcp.option_kind" showname="Kind: Time Stamp Option (8)" size="1" pos="46" show="8" value="08"/>
        <field name="tcp.option_len" showname="Length: 10" size="1" pos="47" show="10" value="0a"/>
        <field name="tcp.options.timestamp.tsval" showname="Timestamp value: 2490944215" size="4" pos="48" show="2490944215" value="9478cad7"/>
        <field name="tcp.options.timestamp.tsecr" showname="Timestamp echo reply: 2266147419" size="4" pos="52" show="2266147419" value="8712aa5b"/>
      </field>
    </field>
    <field name="" show="Timestamps" size="0" pos="24">
      <field name="tcp.time_relative" showname="Time since first frame in this TCP stream: 10.951000 milliseconds" size="0" pos="24" show="0.010951000"/>
      <field name="tcp.time_delta" showname="Time since previous frame in this TCP stream: 197.000 microseconds" size="0" pos="24" show="0.000197000"/>
    </field>
    <field name="tcp.analysis" showname="SEQ/ACK analysis" size="0" pos="24" show="" value="">
      <field name="tcp.analysis.initial_rtt" showname="iRTT: 173.000 microseconds" size="0" pos="24" show="0.000173000"/>
      <field name="tcp.analysis.bytes_in_flight" showname="Bytes in flight: 5" size="0" pos="24" show="5"/>
      <field name="tcp.analysis.push_bytes_sent" showname="Bytes sent since last PSH flag: 5" size="0" pos="24" show="5"/>
    </field>
    <field name="tcp.stream.client.contiguity_count" showname="Client Contiguous Streams: 1" size="0" pos="24" show="1"/>
    <field name="tcp.stream.server.contiguity_count" showname="Server Contiguous Streams: 1" size="0" pos="24" show="1"/>
    <field name="tcp.payload" showname="TCP payload (5 bytes)" size="5" pos="56" show="30:0d:0a:0d:0a" value="300d0a0d0a"/>
    <field name="tcp.segment_data" showname="TCP segment data (5 bytes)" size="5" pos="56" show="30:0d:0a:0d:0a" value="300d0a0d0a"/>
  </proto>
  <proto name="fake-field-wrapper">
    <field name="tcp.segments" showname="2 Reassembled TCP Segments (910 bytes): #9(905), #11(5)" size="910" pos="0" show="" value="">
      <field name="tcp.segment" showname="Frame: 9, payload: 0-904 (905 bytes)" size="905" pos="0" show="9" value="485454502f312e3120323030204f4b0d0a582d436c69636b486f7573652d53756d6d6172793a207b22726561645f726f7773223a2234222c22726561645f6279746573223a22313136222c227772697474656e5f726f7773223a2230222c227772697474656e5f6279746573223a2230222c22746f74616c5f726f77735f746f5f72656164223a2234222c22726573756c745f726f7773223a2230222c22726573756c745f6279746573223a2230222c22656c61707365645f6e73223a2232373138303030222c226d656d6f72795f7573616765223a2231313432303135227d0d0a446174653a204d6f6e2c2031342053657020323032362030333a35363a323420474d540d0a436f6e6e656374696f6e3a204b6565702d416c6976650d0a436f6e74656e742d547970653a206170706c69636174696f6e2f6f637465742d73747265616d0d0a4163636573732d436f6e74726f6c2d4578706f73652d486561646572733a20582d436c69636b486f7573652d51756572792d49642c582d436c69636b486f7573652d53756d6d6172792c582d436c69636b486f7573652d5365727665722d446973706c61792d4e616d652c582d436c69636b486f7573652d466f726d61742c582d436c69636b486f7573652d54696d657a6f6e652c582d436c69636b486f7573652d457863657074696f6e2d436f64652c582d436c69636b486f7573652d457863657074696f6e2d5461670d0a582d436c69636b486f7573652d5365727665722d446973706c61792d4e616d653a206533326461613632383865300d0a5472616e736665722d456e636f64696e673a206368756e6b65640d0a582d436c69636b486f7573652d51756572792d49643a2037393661336238302d386537612d346164332d623039302d3535303335626436333862360d0a582d436c69636b486f7573652d466f726d61743a20526f7742696e6172790d0a582d436c69636b486f7573652d54696d657a6f6e653a205554430d0a4b6565702d416c6976653a2074696d656f75743d33302c206d61783d393939390d0a582d436c69636b486f7573652d457863657074696f6e2d5461673a206e686877677a7a62666f63797471716e0d0a0d0a35380d0a09536d6172744461746100eced753b0506000000000009536d617274446174610091b5e9982106000100000009536d6172744461746100a8db65664006000000000009536d6172744461746100da20f7235c0600010000000d0a"/>
      <field name="tcp.segment" showname="Frame: 11, payload: 905-909 (5 bytes)" size="5" pos="905" show="11" value="300d0a0d0a"/>
      <field name="tcp.segment.count" showname="Segment count: 2" size="0" pos="0" show="2"/>
      <field name="tcp.reassembled.length" showname="Reassembled TCP length: 910" size="0" pos="0" show="910"/>
      <field name="tcp.reassembled.data" showname="Reassembled TCP Data […]: 485454502f312e3120323030204f4b0d0a582d436c69636b486f7573652d53756d6d6172793a207b22726561645f726f7773223a2234222c22726561645f6279746573223a22313136222c227772697474656e5f726f7773223a2230222c227772697474656e5f62797" size="910" pos="0" show="48:54:54:50:2f:31:2e:31:20:32:30:30:20:4f:4b:0d:0a:58:2d:43:6c:69:63:6b:48:6f:75:73:65:2d:53:75:6d:6d:61:72:79:3a:20:7b:22:72:65:61:64:5f:72:6f:77:73:22:3a:22:34:22:2c:22:72:65:61:64:5f:62:79:74:65:73:22:3a:22:31:31:36:22:2c:22:77:72:69:74:74:65:6e:5f:72:6f:77:73:22:3a:22:30:22:2c:22:77:72:69:74:74:65:6e:5f:62:79:74:65:73:22:3a:22:30:22:2c:22:74:6f:74:61:6c:5f:72:6f:77:73:5f:74:6f:5f:72:65:61:64:22:3a:22:34:22:2c:22:72:65:73:75:6c:74:5f:72:6f:77:73:22:3a:22:30:22:2c:22:72:65:73:75:6c:74:5f:62:79:74:65:73:22:3a:22:30:22:2c:22:65:6c:61:70:73:65:64:5f:6e:73:22:3a:22:32:37:31:38:30:30:30:22:2c:22:6d:65:6d:6f:72:79:5f:75:73:61:67:65:22:3a:22:31:31:34:32:30:31:35:22:7d:0d:0a:44:61:74:65:3a:20:4d:6f:6e:2c:20:31:34:20:53:65:70:20:32:30:32:36:20:30:33:3a:35:36:3a:32:34:20:47:4d:54:0d:0a:43:6f:6e:6e:65:63:74:69:6f:6e:3a:20:4b:65:65:70:2d:41:6c:69:76:65:0d:0a:43:6f:6e:74:65:6e:74:2d:54:79:70:65:3a:20:61:70:70:6c:69:63:61:74:69:6f:6e:2f:6f:63:74:65:74:2d:73:74:72:65:61:6d:0d:0a:41:63:63:65:73:73:2d:43:6f:6e:74:72:6f:6c:2d:45:78:70:6f:73:65:2d:48:65:61:64:65:72:73:3a:20:58:2d:43:6c:69:63:6b:48:6f:75:73:65:2d:51:75:65:72:79:2d:49:64:2c:58:2d:43:6c:69:63:6b:48:6f:75:73:65:2d:53:75:6d:6d:61:72:79:2c:58:2d:43:6c:69:63:6b:48:6f:75:73:65:2d:53:65:72:76:65:72:2d:44:69:73:70:6c:61:79:2d:4e:61:6d:65:2c:58:2d:43:6c:69:63:6b:48:6f:75:73:65:2d:46:6f:72:6d:61:74:2c:58:2d:43:6c:69:63:6b:48:6f:75:73:65:2d:54:69:6d:65:7a:6f:6e:65:2c:58:2d:43:6c:69:63:6b:48:6f:75:73:65:2d:45:78:63:65:70:74:69:6f:6e:2d:43:6f:64:65:2c:58:2d:43:6c:69:63:6b:48:6f:75:73:65:2d:45:78:63:65:70:74:69:6f:6e:2d:54:61:67:0d:0a:58:2d:43:6c:69:63:6b:48:6f:75:73:65:2d:53:65:72:76:65:72:2d:44:69:73:70:6c:61:79:2d:4e:61:6d:65:3a:20:65:33:32:64:61:61:36:32:38:38:65:30:0d:0a:54:72:61:6e:73:66:65:72:2d:45:6e:63:6f:64:69:6e:67:3a:20:63:68:75:6e:6b:65:64:0d:0a:58:2d:43:6c:69:63:6b:48:6f:75:73:65:2d:51:75:65:72:79:2d:49:64:3a:20:37:39:36:61:33:62:38:30:2d:38:65:37:61:2d:34:61:64:33:2d:62:30:39:30:2d:35:35:30:33:35:62:64:36:33:38:62:36:0d:0a:58:2d:43:6c:69:63:6b:48:6f:75:73:65:2d:46:6f:72:6d:61:74:3a:20:52:6f:77:42:69:6e:61:72:79:0d:0a:58:2d:43:6c:69:63:6b:48:6f:75:73:65:2d:54:69:6d:65:7a:6f:6e:65:3a:20:55:54:43:0d:0a:4b:65:65:70:2d:41:6c:69:76:65:3a:20:74:69:6d:65:6f:75:74:3d:33:30:2c:20:6d:61:78:3d:39:39:39:39:0d:0a:58:2d:43:6c:69:63:6b:48:6f:75:73:65:2d:45:78:63:65:70:74:69:6f:6e:2d:54:61:67:3a:20:6e:68:68:77:67:7a:7a:62:66:6f:63:79:74:71:71:6e:0d:0a:0d:0a:35:38:0d:0a:09:53:6d:61:72:74:44:61:74:61:00:ec:ed:75:3b:05:06:00:00:00:00:00:09:53:6d:61:72:74:44:61:74:61:00:91:b5:e9:98:21:06:00:01:00:00:00:09:53:6d:61:72:74:44:61:74:61:00:a8:db:65:66:40:06:00:00:00:00:00:09:53:6d:61:72:74:44:61:74:61:00:da:20:f7:23:5c:06:00:01:00:00:00:0d:0a:30:0d:0a:0d:0a" value="485454502f312e3120323030204f4b0d0a582d436c69636b486f7573652d53756d6d6172793a207b22726561645f726f7773223a2234222c22726561645f6279746573223a22313136222c227772697474656e5f726f7773223a2230222c227772697474656e5f6279746573223a2230222c22746f74616c5f726f77735f746f5f72656164223a2234222c22726573756c745f726f7773223a2230222c22726573756c745f6279746573223a2230222c22656c61707365645f6e73223a2232373138303030222c226d656d6f72795f7573616765223a2231313432303135227d0d0a446174653a204d6f6e2c2031342053657020323032362030333a35363a323420474d540d0a436f6e6e656374696f6e3a204b6565702d416c6976650d0a436f6e74656e742d547970653a206170706c69636174696f6e2f6f637465742d73747265616d0d0a4163636573732d436f6e74726f6c2d4578706f73652d486561646572733a20582d436c69636b486f7573652d51756572792d49642c582d436c69636b486f7573652d53756d6d6172792c582d436c69636b486f7573652d5365727665722d446973706c61792d4e616d652c582d436c69636b486f7573652d466f726d61742c582d436c69636b486f7573652d54696d657a6f6e652c582d436c69636b486f7573652d457863657074696f6e2d436f64652c582d436c69636b486f7573652d457863657074696f6e2d5461670d0a582d436c69636b486f7573652d5365727665722d446973706c61792d4e616d653a206533326461613632383865300d0a5472616e736665722d456e636f64696e673a206368756e6b65640d0a582d436c69636b486f7573652d51756572792d49643a2037393661336238302d386537612d346164332d623039302d3535303335626436333862360d0a582d436c69636b486f7573652d466f726d61743a20526f7742696e6172790d0a582d436c69636b486f7573652d54696d657a6f6e653a205554430d0a4b6565702d416c6976653a2074696d656f75743d33302c206d61783d393939390d0a582d436c69636b486f7573652d457863657074696f6e2d5461673a206e686877677a7a62666f63797471716e0d0a0d0a35380d0a09536d6172744461746100eced753b0506000000000009536d617274446174610091b5e9982106000100000009536d6172744461746100a8db65664006000000000009536d6172744461746100da20f7235c0600010000000d0a300d0a0d0a"/>
  </field>
  </proto>
  <proto name="http" showname="Hypertext Transfer Protocol, has 2 chunks (including last chunk)" size="811" pos="0">
    <field name="" show="HTTP/1.1 200 OK\r\n" size="17" pos="0" value="485454502f312e3120323030204f4b0d0a">
      <field name="http.response.version" showname="Response Version: HTTP/1.1" size="8" pos="0" show="HTTP/1.1" value="485454502f312e31"/>
      <field name="http.response.code" showname="Status Code: 200" size="3" pos="9" show="200" value="323030"/>
      <field name="http.response.code.desc" showname="Status Code Description: OK" size="3" pos="9" show="OK" value="323030"/>
      <field name="http.response.phrase" showname="Response Phrase: OK" size="2" pos="13" show="OK" value="4f4b"/>
    </field>
    <field name="http.response.line" showname="X-ClickHouse-Summary: {&quot;read_rows&quot;:&quot;4&quot;,&quot;read_bytes&quot;:&quot;116&quot;,&quot;written_rows&quot;:&quot;0&quot;,&quot;written_bytes&quot;:&quot;0&quot;,&quot;total_rows_to_read&quot;:&quot;4&quot;,&quot;result_rows&quot;:&quot;0&quot;,&quot;result_bytes&quot;:&quot;0&quot;,&quot;elapsed_ns&quot;:&quot;2718000&quot;,&quot;memory_usage&quot;:&quot;1142015&quot;}\r\n" size="209" pos="17" show="X-ClickHouse-Summary: {&quot;read_rows&quot;:&quot;4&quot;,&quot;read_bytes&quot;:&quot;116&quot;,&quot;written_rows&quot;:&quot;0&quot;,&quot;written_bytes&quot;:&quot;0&quot;,&quot;total_rows_to_read&quot;:&quot;4&quot;,&quot;result_rows&quot;:&quot;0&quot;,&quot;result_bytes&quot;:&quot;0&quot;,&quot;elapsed_ns&quot;:&quot;2718000&quot;,&quot;memory_usage&quot;:&quot;1142015&quot;}
" value="582d436c69636b486f7573652d53756d6d6172793a207b22726561645f726f7773223a2234222c22726561645f6279746573223a22313136222c227772697474656e5f726f7773223a2230222c227772697474656e5f6279746573223a2230222c22746f74616c5f726f77735f746f5f72656164223a2234222c22726573756c745f726f7773223a2230222c22726573756c745f6279746573223a2230222c22656c61707365645f6e73223a2232373138303030222c226d656d6f72795f7573616765223a2231313432303135227d0d0a"/>
    <field name="http.date" showname="Date: Mon, 14 Sep 2026 03:56:24 GMT\r\n" size="37" pos="226" show="Mon, 14 Sep 2026 03:56:24 GMT" value="446174653a204d6f6e2c2031342053657020323032362030333a35363a323420474d540d0a"/>
    <field name="http.response.line" showname="Date: Mon, 14 Sep 2026 03:56:24 GMT\r\n" hide="yes" size="37" pos="226" show="Date: Mon, 14 Sep 2026 03:56:24 GMT
" value="446174653a204d6f6e2c2031342053657020323032362030333a35363a323420474d540d0a"/>
    <field name="http.connection" showname="Connection: Keep-Alive\r\n" size="24" pos="263" show="Keep-Alive" value="436f6e6e656374696f6e3a204b6565702d416c6976650d0a"/>
    <field name="http.response.line" showname="Connection: Keep-Alive\r\n" hide="yes" size="24" pos="263" show="Connection: Keep-Alive
" value="436f6e6e656374696f6e3a204b6565702d416c6976650d0a"/>
    <field name="http.content_type" showname="Content-Type: application/octet-stream\r\n" size="40" pos="287" show="application/octet-stream" value="436f6e74656e742d547970653a206170706c69636174696f6e2f6f637465742d73747265616d0d0a"/>
    <field name="http.response.line" showname="Content-Type: application/octet-stream\r\n" hide="yes" size="40" pos="287" show="Content-Type: application/octet-stream
" value="436f6e74656e742d547970653a206170706c69636174696f6e2f6f637465742d73747265616d0d0a"/>
    <field name="http.response.line" showname="Access-Control-Expose-Headers: X-ClickHouse-Query-Id,X-ClickHouse-Summary,X-ClickHouse-Server-Display-Name,X-ClickHouse-Format,X-ClickHouse-Timezone,X-ClickHouse-Exception-Code,X-ClickHouse-Exception-Tag\r\n" size="205" pos="327" show="Access-Control-Expose-Headers: X-ClickHouse-Query-Id,X-ClickHouse-Summary,X-ClickHouse-Server-Display-Name,X-ClickHouse-Format,X-ClickHouse-Timezone,X-ClickHouse-Exception-Code,X-ClickHouse-Exception-Tag
" value="4163636573732d436f6e74726f6c2d4578706f73652d486561646572733a20582d436c69636b486f7573652d51756572792d49642c582d436c69636b486f7573652d53756d6d6172792c582d436c69636b486f7573652d5365727665722d446973706c61792d4e616d652c582d436c69636b486f7573652d466f726d61742c582d436c69636b486f7573652d54696d657a6f6e652c582d436c69636b486f7573652d457863657074696f6e2d436f64652c582d436c69636b486f7573652d457863657074696f6e2d5461670d0a"/>
    <field name="http.response.line" showname="X-ClickHouse-Server-Display-Name: e32daa6288e0\r\n" size="48" pos="532" show="X-ClickHouse-Server-Display-Name: e32daa6288e0
" value="582d436c69636b486f7573652d5365727665722d446973706c61792d4e616d653a206533326461613632383865300d0a"/>
    <field name="http.transfer_encoding" showname="Transfer-Encoding: chunked\r\n" size="28" pos="580" show="chunked" value="5472616e736665722d456e636f64696e673a206368756e6b65640d0a"/>
    <field name="http.response.line" showname="Transfer-Encoding: chunked\r\n" hide="yes" size="28" pos="580" show="Transfer-Encoding: chunked
" value="5472616e736665722d456e636f64696e673a206368756e6b65640d0a"/>
    <field name="http.response.line" showname="X-ClickHouse-Query-Id: 796a3b80-8e7a-4ad3-b090-55035bd638b6\r\n" size="61" pos="608" show="X-ClickHouse-Query-Id: 796a3b80-8e7a-4ad3-b090-55035bd638b6
" value="582d436c69636b486f7573652d51756572792d49643a2037393661336238302d386537612d346164332d623039302d3535303335626436333862360d0a"/>
    <field name="http.response.line" showname="X-ClickHouse-Format: RowBinary\r\n" size="32" pos="669" show="X-ClickHouse-Format: RowBinary
" value="582d436c69636b486f7573652d466f726d61743a20526f7742696e6172790d0a"/>
    <field name="http.response.line" showname="X-ClickHouse-Timezone: UTC\r\n" size="28" pos="701" show="X-ClickHouse-Timezone: UTC
" value="582d436c69636b486f7573652d54696d657a6f6e653a205554430d0a"/>
    <field name="http.response.line" showname="Keep-Alive: timeout=30, max=9999\r\n" size="34" pos="729" show="Keep-Alive: timeout=30, max=9999
" value="4b6565702d416c6976653a2074696d656f75743d33302c206d61783d393939390d0a"/>
    <field name="http.response.line" showname="X-ClickHouse-Exception-Tag: nhhwgzzbfocytqqn\r\n" size="46" pos="763" show="X-ClickHouse-Exception-Tag: nhhwgzzbfocytqqn
" value="582d436c69636b486f7573652d457863657074696f6e2d5461673a206e686877677a7a62666f63797471716e0d0a"/>
    <field name="" show="\r\n" size="2" pos="809" value="0d0a"/>
    <field name="http.response" showname="Response: True" hide="yes" size="0" pos="0" show="True"/>
    <field name="http.request_in" showname="Request in frame: 6" size="0" pos="0" show="6"/>
    <field name="http.time" showname="Time since request: 10.741000 milliseconds" size="0" pos="0" show="0.010741000"/>
    <field name="http.request.uri" showname="Request URI: /?enable_http_compression=0" size="0" pos="0" show="/?enable_http_compression=0"/>
    <field name="http.request.full_uri" showname="Full request URI: http://127.0.0.1:18123/?enable_http_compression=0" size="0" pos="0" show="http://127.0.0.1:18123/?enable_http_compression=0"/>
    <field name="" show="HTTP chunked response" size="99" pos="811" value="35380d0a09536d6172744461746100eced753b0506000000000009536d617274446174610091b5e9982106000100000009536d6172744461746100a8db65664006000000000009536d6172744461746100da20f7235c0600010000000d0a300d0a0d0a">
      <field name="" show="Data chunk (88 octets)" size="94" pos="811" value="35380d0a09536d6172744461746100eced753b0506000000000009536d617274446174610091b5e9982106000100000009536d6172744461746100a8db65664006000000000009536d6172744461746100da20f7235c0600010000000d0a">
        <field name="http.chunk_size" showname="Chunk size: 88 octets" size="4" pos="811" show="88" value="35380d0a"/>
        <field name="http.chunk_data" showname="Chunk data: 09536d6172744461746100eced753b0506000000000009536d617274446174610091b5e9982106000100000009536d6172744461746100a8db65664006000000000009536d6172744461746100da20f7235c060001000000" size="88" pos="815" show="09:53:6d:61:72:74:44:61:74:61:00:ec:ed:75:3b:05:06:00:00:00:00:00:09:53:6d:61:72:74:44:61:74:61:00:91:b5:e9:98:21:06:00:01:00:00:00:09:53:6d:61:72:74:44:61:74:61:00:a8:db:65:66:40:06:00:00:00:00:00:09:53:6d:61:72:74:44:61:74:61:00:da:20:f7:23:5c:06:00:01:00:00:00" value="09536d6172744461746100eced753b0506000000000009536d617274446174610091b5e9982106000100000009536d6172744461746100a8db65664006000000000009536d6172744461746100da20f7235c060001000000"/>
        <field name="http.chunk_boundary" showname="Chunk boundary: 0d0a" size="2" pos="903" show="0d:0a" value="0d0a"/>
      </field>
      <field name="" show="End of chunked encoding" size="5" pos="905" value="300d0a0d0a">
        <field name="http.chunk_size" showname="Chunk size: 0 octets" size="3" pos="905" show="0" value="300d0a"/>
      </field>
      <field name="" show="\r\n" size="2" pos="908" value="0d0a"/>
    </field>
    <field name="http.file_data" showname="File Data: 88 bytes" size="88" pos="0" show="09:53:6d:61:72:74:44:61:74:61:00:ec:ed:75:3b:05:06:00:00:00:00:00:09:53:6d:61:72:74:44:61:74:61:00:91:b5:e9:98:21:06:00:01:00:00:00:09:53:6d:61:72:74:44:61:74:61:00:a8:db:65:66:40:06:00:00:00:00:00:09:53:6d:61:72:74:44:61:74:61:00:da:20:f7:23:5c:06:00:01:00:00:00" value="09536d6172744461746100eced753b0506000000000009536d617274446174610091b5e9982106000100000009536d6172744461746100a8db65664006000000000009536d6172744461746100da20f7235c060001000000"/>
  </proto>
  <proto name="fake-field-wrapper">
    <field name="data" value="09536d6172744461746100eced753b0506000000000009536d617274446174610091b5e9982106000100000009536d6172744461746100a8db65664006000000000009536d6172744461746100da20f7235c060001000000">
      <field name="data.data" showname="Data: 09536d6172744461746100eced753b0506000000000009536d617274446174610091b5e9982106000100000009536d6172744461746100a8db65664006000000000009536d6172744461746100da20f7235c060001000000" size="88" pos="0" show="09:53:6d:61:72:74:44:61:74:61:00:ec:ed:75:3b:05:06:00:00:00:00:00:09:53:6d:61:72:74:44:61:74:61:00:91:b5:e9:98:21:06:00:01:00:00:00:09:53:6d:61:72:74:44:61:74:61:00:a8:db:65:66:40:06:00:00:00:00:00:09:53:6d:61:72:74:44:61:74:61:00:da:20:f7:23:5c:06:00:01:00:00:00" value="09536d6172744461746100eced753b0506000000000009536d617274446174610091b5e9982106000100000009536d6172744461746100a8db65664006000000000009536d6172744461746100da20f7235c060001000000"/>
      <field name="data.len" showname="Length: 88" size="0" pos="0" show="88"/>
  </field>
  </proto>
</packet>


<packet>
  <proto name="geninfo" pos="0" showname="General information" size="56">
    <field name="num" pos="0" show="12" showname="Number" value="c" size="56"/>
    <field name="len" pos="0" show="56" showname="Frame Length" value="38" size="56"/>
    <field name="caplen" pos="0" show="56" showname="Captured Length" value="38" size="56"/>
    <field name="timestamp" pos="0" show="Sep 14, 2026 06:56:24.070015000 MSK" showname="Captured Time" value="1789358184.070015000" size="56"/>
  </proto>
  <proto name="frame" showname="Frame 12: Packet, 56 bytes on wire (448 bits), 56 bytes captured (448 bits) on interface lo0, id 0" size="56" pos="0">
    <field name="frame.section_number" showname="Section number: 1" size="0" pos="0" show="1"/>
    <field name="frame.interface_id" showname="Interface id: 0 (lo0)" size="0" pos="0" show="0">
      <field name="frame.interface_name" showname="Interface name: lo0" size="0" pos="0" show="lo0"/>
      <field name="frame.interface_description" showname="Interface description: Loopback" size="0" pos="0" show="Loopback"/>
    </field>
    <field name="frame.encap_type" showname="Encapsulation type: NULL/Loopback (15)" size="0" pos="0" show="15"/>
    <field name="frame.time" showname="Arrival Time: Sep 14, 2026 06:56:24.070015000 MSK" size="0" pos="0" show="2026-09-14T06:56:24.070015000+0300"/>
    <field name="frame.time_utc" showname="UTC Arrival Time: Sep 14, 2026 03:56:24.070015000 UTC" size="0" pos="0" show="2026-09-14T03:56:24.070015000Z"/>
    <field name="frame.time_epoch" showname="Epoch Arrival Time: 1789358184.070015000" size="0" pos="0" show="1789358184.070015000"/>
    <field name="frame.offset_shift" showname="Time shift for this packet: 0.000000000 seconds" size="0" pos="0" show="0.000000000"/>
    <field name="frame.time_delta" showname="Time delta from previous captured frame: 27.000 microseconds" size="0" pos="0" show="0.000027000"/>
    <field name="frame.time_delta_displayed" showname="Time delta from previous displayed frame: 27.000 microseconds" size="0" pos="0" show="0.000027000"/>
    <field name="frame.time_relative" showname="Time since reference or first frame: 10.978000 milliseconds" size="0" pos="0" show="0.010978000"/>
    <field name="frame.number" showname="Frame Number: 12" size="0" pos="0" show="12"/>
    <field name="frame.len" showname="Frame Length: 56 bytes (448 bits)" size="0" pos="0" show="56"/>
    <field name="frame.cap_len" showname="Capture Length: 56 bytes (448 bits)" size="0" pos="0" show="56"/>
    <field name="frame.marked" showname="Frame is marked: False" size="0" pos="0" show="False"/>
    <field name="frame.ignored" showname="Frame is ignored: False" size="0" pos="0" show="False"/>
    <field name="frame.protocols" showname="Protocols in frame: null:ip:tcp" size="0" pos="0" show="null:ip:tcp"/>
    <field name="frame.encoding" showname="Character encoding: ASCII (0)" size="0" pos="0" show="0"/>
  </proto>
  <proto name="null" showname="Null/Loopback" size="4" pos="0">
    <field name="null.family" showname="Family: IP (2)" size="4" pos="0" show="2" value="02000000"/>
  </proto>
  <proto name="ip" showname="Internet Protocol Version 4, Src: 127.0.0.1, Dst: 127.0.0.1" size="20" pos="4">
    <field name="ip.version" showname="0100 .... = Version: 4" size="1" pos="4" show="4" value="45"/>
    <field name="ip.hdr_len" showname=".... 0101 = Header Length: 20 bytes (5)" size="1" pos="4" show="20" value="45"/>
    <field name="ip.dsfield" showname="Differentiated Services Field: 0x00 (DSCP: CS0, ECN: Not-ECT)" size="1" pos="5" show="0x00" value="00">
      <field name="ip.dsfield.dscp" showname="0000 00.. = Differentiated Services Codepoint: Default (0)" size="1" pos="5" show="0" value="0" unmaskedvalue="00"/>
      <field name="ip.dsfield.ecn" showname=".... ..00 = Explicit Congestion Notification: Not ECN-Capable Transport (0)" size="1" pos="5" show="0" value="0" unmaskedvalue="00"/>
    </field>
    <field name="ip.len" showname="Total Length: 52" size="2" pos="6" show="52" value="0034"/>
    <field name="ip.id" showname="Identification: 0x0000 (0)" size="2" pos="8" show="0x0000" value="0000"/>
    <field name="ip.flags" showname="010. .... = Flags: 0x2, Don&#x27;t fragment" size="1" pos="10" show="0x02" value="2" unmaskedvalue="40">
      <field name="ip.flags.rb" showname="0... .... = Reserved bit: Not set" size="1" pos="10" show="False" value="0" unmaskedvalue="40"/>
      <field name="ip.flags.df" showname=".1.. .... = Don&#x27;t fragment: Set" size="1" pos="10" show="True" value="1" unmaskedvalue="40"/>
      <field name="ip.flags.mf" showname="..0. .... = More fragments: Not set" size="1" pos="10" show="False" value="0" unmaskedvalue="40"/>
    </field>
    <field name="ip.frag_offset" showname="...0 0000 0000 0000 = Fragment Offset: 0" size="2" pos="10" show="0" value="0" unmaskedvalue="4000"/>
    <field name="ip.ttl" showname="Time to Live: 64" size="1" pos="12" show="64" value="40"/>
    <field name="ip.proto" showname="Protocol: TCP (6)" size="1" pos="13" show="6" value="06"/>
    <field name="ip.checksum" showname="Header Checksum: 0x0000 [validation disabled]" size="2" pos="14" show="0x0000" value="0000"/>
    <field name="ip.checksum.status" showname="Header checksum status: Unverified" size="0" pos="14" show="2"/>
    <field name="ip.src" showname="Source Address: 127.0.0.1" size="4" pos="16" show="127.0.0.1" value="7f000001"/>
    <field name="ip.addr" showname="Source or Destination Address: 127.0.0.1" hide="yes" size="4" pos="16" show="127.0.0.1" value="7f000001"/>
    <field name="ip.src_host" showname="Source Host: 127.0.0.1" hide="yes" size="4" pos="16" show="127.0.0.1" value="7f000001"/>
    <field name="ip.host" showname="Source or Destination Host: 127.0.0.1" hide="yes" size="4" pos="16" show="127.0.0.1" value="7f000001"/>
    <field name="ip.dst" showname="Destination Address: 127.0.0.1" size="4" pos="20" show="127.0.0.1" value="7f000001"/>
    <field name="ip.addr" showname="Source or Destination Address: 127.0.0.1" hide="yes" size="4" pos="20" show="127.0.0.1" value="7f000001"/>
    <field name="ip.dst_host" showname="Destination Host: 127.0.0.1" hide="yes" size="4" pos="20" show="127.0.0.1" value="7f000001"/>
    <field name="ip.host" showname="Source or Destination Host: 127.0.0.1" hide="yes" size="4" pos="20" show="127.0.0.1" value="7f000001"/>
    <field name="ip.stream" showname="Stream index: 0" size="0" pos="24" show="0"/>
  </proto>
  <proto name="tcp" showname="Transmission Control Protocol, Src Port: 56080, Dst Port: 18123, Seq: 323, Ack: 911, Len: 0" size="32" pos="24">
    <field name="tcp.srcport" showname="Source Port: 56080" size="2" pos="24" show="56080" value="db10"/>
    <field name="tcp.dstport" showname="Destination Port: 18123" size="2" pos="26" show="18123" value="46cb"/>
    <field name="tcp.port" showname="Source or Destination Port: 56080" hide="yes" size="2" pos="24" show="56080" value="db10"/>
    <field name="tcp.port" showname="Source or Destination Port: 18123" hide="yes" size="2" pos="26" show="18123" value="46cb"/>
    <field name="tcp.stream" showname="Stream index: 0" size="0" pos="24" show="0"/>
    <field name="tcp.stream.pnum" showname="Stream Packet Number: 12" size="0" pos="24" show="12"/>
    <field name="tcp.completeness" showname="Conversation completeness: Incomplete, DATA (15)" size="0" pos="24" show="15">
      <field name="tcp.completeness.rst" showname="..0. .... = RST: Absent" size="0" pos="0" show="False"/>
      <field name="tcp.completeness.fin" showname="...0 .... = FIN: Absent" size="0" pos="0" show="False"/>
      <field name="tcp.completeness.data" showname=".... 1... = Data: Present" size="0" pos="0" show="True"/>
      <field name="tcp.completeness.ack" showname=".... .1.. = ACK: Present" size="0" pos="0" show="True"/>
      <field name="tcp.completeness.syn-ack" showname=".... ..1. = SYN-ACK: Present" size="0" pos="0" show="True"/>
      <field name="tcp.completeness.syn" showname=".... ...1 = SYN: Present" size="0" pos="0" show="True"/>
      <field name="tcp.completeness.str" showname="Completeness Flags: ··DASS" size="0" pos="24" show="··DASS"/>
    </field>
    <field name="tcp.len" showname="TCP Segment Len: 0" size="0" pos="24" show="0"/>
    <field name="tcp.seq" showname="Sequence Number: 323    (relative sequence number)" size="4" pos="28" show="323" value="34119949"/>
    <field name="tcp.seq_raw" showname="Sequence Number (raw): 873568585" size="4" pos="28" show="873568585" value="34119949"/>
    <field name="tcp.nxtseq" showname="Next Sequence Number: 323    (relative sequence number)" size="0" pos="24" show="323"/>
    <field name="tcp.ack" showname="Acknowledgment Number: 911    (relative ack number)" size="4" pos="32" show="911" value="a8ebb0a7"/>
    <field name="tcp.ack_raw" showname="Acknowledgment number (raw): 2834018471" size="4" pos="32" show="2834018471" value="a8ebb0a7"/>
    <field name="tcp.hdr_len" showname="1000 .... = Header Length: 32 bytes (8)" size="1" pos="36" show="32" value="80"/>
    <field name="tcp.flags" showname="Flags: 0x010 (ACK)" size="2" pos="36" show="0x0010" value="10" unmaskedvalue="8010">
      <field name="tcp.flags.res" showname="000. .... .... = Reserved: Not set" size="1" pos="36" show="False" value="0" unmaskedvalue="80"/>
      <field name="tcp.flags.ae" showname="...0 .... .... = Accurate ECN: Not set" size="1" pos="36" show="False" value="0" unmaskedvalue="80"/>
      <field name="tcp.flags.cwr" showname=".... 0... .... = Congestion Window Reduced: Not set" size="1" pos="37" show="False" value="0" unmaskedvalue="10"/>
      <field name="tcp.flags.ece" showname=".... .0.. .... = ECN-Echo: Not set" size="1" pos="37" show="False" value="0" unmaskedvalue="10"/>
      <field name="tcp.flags.urg" showname=".... ..0. .... = Urgent: Not set" size="1" pos="37" show="False" value="0" unmaskedvalue="10"/>
      <field name="tcp.flags.ack" showname=".... ...1 .... = Acknowledgment: Set" size="1" pos="37" show="True" value="1" unmaskedvalue="10"/>
      <field name="tcp.flags.push" showname=".... .... 0... = Push: Not set" size="1" pos="37" show="False" value="0" unmaskedvalue="10"/>
      <field name="tcp.flags.reset" showname=".... .... .0.. = Reset: Not set" size="1" pos="37" show="False" value="0" unmaskedvalue="10"/>
      <field name="tcp.flags.syn" showname=".... .... ..0. = Syn: Not set" size="1" pos="37" show="False" value="0" unmaskedvalue="10"/>
      <field name="tcp.flags.fin" showname=".... .... ...0 = Fin: Not set" size="1" pos="37" show="False" value="0" unmaskedvalue="10"/>
      <field name="tcp.flags.str" showname="TCP Flags: ·······A····" size="2" pos="36" show="·······A····" value="8010"/>
    </field>
    <field name="tcp.window_size_value" showname="Window: 6366" size="2" pos="38" show="6366" value="18de"/>
    <field name="tcp.window_size" showname="Calculated window size: 407424" size="2" pos="38" show="407424" value="18de"/>
    <field name="tcp.window_size_scalefactor" showname="Window size scaling factor: 64" size="2" pos="38" show="64" value="18de"/>
    <field name="tcp.checksum" showname="Checksum: 0xfe28 [unverified]" size="2" pos="40" show="0xfe28" value="fe28"/>
    <field name="tcp.checksum.status" showname="Checksum Status: Unverified" size="0" pos="40" show="2"/>
    <field name="tcp.urgent_pointer" showname="Urgent Pointer: 0" size="2" pos="42" show="0" value="0000"/>
    <field name="tcp.options" showname="Options: (12 bytes), No-Operation (NOP), No-Operation (NOP), Timestamps" size="12" pos="44" show="01:01:08:0a:87:12:aa:5b:94:78:ca:d7" value="0101080a8712aa5b9478cad7">
      <field name="tcp.options.nop" showname="TCP Option - No-Operation (NOP)" size="1" pos="44" show="01" value="01">
        <field name="tcp.option_kind" showname="Kind: No-Operation (1)" size="1" pos="44" show="1" value="01"/>
      </field>
      <field name="tcp.options.nop" showname="TCP Option - No-Operation (NOP)" size="1" pos="45" show="01" value="01">
        <field name="tcp.option_kind" showname="Kind: No-Operation (1)" size="1" pos="45" show="1" value="01"/>
      </field>
      <field name="tcp.options.timestamp" showname="TCP Option - Timestamps: TSval 2266147419, TSecr 2490944215" size="10" pos="46" show="08:0a:87:12:aa:5b:94:78:ca:d7" value="080a8712aa5b9478cad7">
        <field name="tcp.option_kind" showname="Kind: Time Stamp Option (8)" size="1" pos="46" show="8" value="08"/>
        <field name="tcp.option_len" showname="Length: 10" size="1" pos="47" show="10" value="0a"/>
        <field name="tcp.options.timestamp.tsval" showname="Timestamp value: 2266147419" size="4" pos="48" show="2266147419" value="8712aa5b"/>
        <field name="tcp.options.timestamp.tsecr" showname="Timestamp echo reply: 2490944215" size="4" pos="52" show="2490944215" value="9478cad7"/>
      </field>
    </field>
    <field name="" show="Timestamps" size="0" pos="24">
      <field name="tcp.time_relative" showname="Time since first frame in this TCP stream: 10.978000 milliseconds" size="0" pos="24" show="0.010978000"/>
      <field name="tcp.time_delta" showname="Time since previous frame in this TCP stream: 27.000 microseconds" size="0" pos="24" show="0.000027000"/>
    </field>
    <field name="tcp.analysis" showname="SEQ/ACK analysis" size="0" pos="24" show="" value="">
      <field name="tcp.analysis.acks_frame" showname="This is an ACK to the segment in frame: 11" size="0" pos="24" show="11"/>
      <field name="tcp.analysis.ack_rtt" showname="The RTT to ACK the segment was: 27.000 microseconds" size="0" pos="24" show="0.000027000"/>
      <field name="tcp.analysis.initial_rtt" showname="iRTT: 173.000 microseconds" size="0" pos="24" show="0.000173000"/>
    </field>
    <field name="tcp.stream.client.contiguity_count" showname="Client Contiguous Streams: 1" size="0" pos="24" show="1"/>
    <field name="tcp.stream.server.contiguity_count" showname="Server Contiguous Streams: 1" size="0" pos="24" show="1"/>
  </proto>
</packet>


<packet>
  <proto name="geninfo" pos="0" showname="General information" size="56">
    <field name="num" pos="0" show="13" showname="Number" value="d" size="56"/>
    <field name="len" pos="0" show="56" showname="Frame Length" value="38" size="56"/>
    <field name="caplen" pos="0" show="56" showname="Captured Length" value="38" size="56"/>
    <field name="timestamp" pos="0" show="Sep 14, 2026 06:56:24.070197000 MSK" showname="Captured Time" value="1789358184.070197000" size="56"/>
  </proto>
  <proto name="frame" showname="Frame 13: Packet, 56 bytes on wire (448 bits), 56 bytes captured (448 bits) on interface lo0, id 0" size="56" pos="0">
    <field name="frame.section_number" showname="Section number: 1" size="0" pos="0" show="1"/>
    <field name="frame.interface_id" showname="Interface id: 0 (lo0)" size="0" pos="0" show="0">
      <field name="frame.interface_name" showname="Interface name: lo0" size="0" pos="0" show="lo0"/>
      <field name="frame.interface_description" showname="Interface description: Loopback" size="0" pos="0" show="Loopback"/>
    </field>
    <field name="frame.encap_type" showname="Encapsulation type: NULL/Loopback (15)" size="0" pos="0" show="15"/>
    <field name="frame.time" showname="Arrival Time: Sep 14, 2026 06:56:24.070197000 MSK" size="0" pos="0" show="2026-09-14T06:56:24.070197000+0300"/>
    <field name="frame.time_utc" showname="UTC Arrival Time: Sep 14, 2026 03:56:24.070197000 UTC" size="0" pos="0" show="2026-09-14T03:56:24.070197000Z"/>
    <field name="frame.time_epoch" showname="Epoch Arrival Time: 1789358184.070197000" size="0" pos="0" show="1789358184.070197000"/>
    <field name="frame.offset_shift" showname="Time shift for this packet: 0.000000000 seconds" size="0" pos="0" show="0.000000000"/>
    <field name="frame.time_delta" showname="Time delta from previous captured frame: 182.000 microseconds" size="0" pos="0" show="0.000182000"/>
    <field name="frame.time_delta_displayed" showname="Time delta from previous displayed frame: 182.000 microseconds" size="0" pos="0" show="0.000182000"/>
    <field name="frame.time_relative" showname="Time since reference or first frame: 11.160000 milliseconds" size="0" pos="0" show="0.011160000"/>
    <field name="frame.number" showname="Frame Number: 13" size="0" pos="0" show="13"/>
    <field name="frame.len" showname="Frame Length: 56 bytes (448 bits)" size="0" pos="0" show="56"/>
    <field name="frame.cap_len" showname="Capture Length: 56 bytes (448 bits)" size="0" pos="0" show="56"/>
    <field name="frame.marked" showname="Frame is marked: False" size="0" pos="0" show="False"/>
    <field name="frame.ignored" showname="Frame is ignored: False" size="0" pos="0" show="False"/>
    <field name="frame.protocols" showname="Protocols in frame: null:ip:tcp" size="0" pos="0" show="null:ip:tcp"/>
    <field name="frame.encoding" showname="Character encoding: ASCII (0)" size="0" pos="0" show="0"/>
  </proto>
  <proto name="null" showname="Null/Loopback" size="4" pos="0">
    <field name="null.family" showname="Family: IP (2)" size="4" pos="0" show="2" value="02000000"/>
  </proto>
  <proto name="ip" showname="Internet Protocol Version 4, Src: 127.0.0.1, Dst: 127.0.0.1" size="20" pos="4">
    <field name="ip.version" showname="0100 .... = Version: 4" size="1" pos="4" show="4" value="45"/>
    <field name="ip.hdr_len" showname=".... 0101 = Header Length: 20 bytes (5)" size="1" pos="4" show="20" value="45"/>
    <field name="ip.dsfield" showname="Differentiated Services Field: 0x00 (DSCP: CS0, ECN: Not-ECT)" size="1" pos="5" show="0x00" value="00">
      <field name="ip.dsfield.dscp" showname="0000 00.. = Differentiated Services Codepoint: Default (0)" size="1" pos="5" show="0" value="0" unmaskedvalue="00"/>
      <field name="ip.dsfield.ecn" showname=".... ..00 = Explicit Congestion Notification: Not ECN-Capable Transport (0)" size="1" pos="5" show="0" value="0" unmaskedvalue="00"/>
    </field>
    <field name="ip.len" showname="Total Length: 52" size="2" pos="6" show="52" value="0034"/>
    <field name="ip.id" showname="Identification: 0x0000 (0)" size="2" pos="8" show="0x0000" value="0000"/>
    <field name="ip.flags" showname="010. .... = Flags: 0x2, Don&#x27;t fragment" size="1" pos="10" show="0x02" value="2" unmaskedvalue="40">
      <field name="ip.flags.rb" showname="0... .... = Reserved bit: Not set" size="1" pos="10" show="False" value="0" unmaskedvalue="40"/>
      <field name="ip.flags.df" showname=".1.. .... = Don&#x27;t fragment: Set" size="1" pos="10" show="True" value="1" unmaskedvalue="40"/>
      <field name="ip.flags.mf" showname="..0. .... = More fragments: Not set" size="1" pos="10" show="False" value="0" unmaskedvalue="40"/>
    </field>
    <field name="ip.frag_offset" showname="...0 0000 0000 0000 = Fragment Offset: 0" size="2" pos="10" show="0" value="0" unmaskedvalue="4000"/>
    <field name="ip.ttl" showname="Time to Live: 64" size="1" pos="12" show="64" value="40"/>
    <field name="ip.proto" showname="Protocol: TCP (6)" size="1" pos="13" show="6" value="06"/>
    <field name="ip.checksum" showname="Header Checksum: 0x0000 [validation disabled]" size="2" pos="14" show="0x0000" value="0000"/>
    <field name="ip.checksum.status" showname="Header checksum status: Unverified" size="0" pos="14" show="2"/>
    <field name="ip.src" showname="Source Address: 127.0.0.1" size="4" pos="16" show="127.0.0.1" value="7f000001"/>
    <field name="ip.addr" showname="Source or Destination Address: 127.0.0.1" hide="yes" size="4" pos="16" show="127.0.0.1" value="7f000001"/>
    <field name="ip.src_host" showname="Source Host: 127.0.0.1" hide="yes" size="4" pos="16" show="127.0.0.1" value="7f000001"/>
    <field name="ip.host" showname="Source or Destination Host: 127.0.0.1" hide="yes" size="4" pos="16" show="127.0.0.1" value="7f000001"/>
    <field name="ip.dst" showname="Destination Address: 127.0.0.1" size="4" pos="20" show="127.0.0.1" value="7f000001"/>
    <field name="ip.addr" showname="Source or Destination Address: 127.0.0.1" hide="yes" size="4" pos="20" show="127.0.0.1" value="7f000001"/>
    <field name="ip.dst_host" showname="Destination Host: 127.0.0.1" hide="yes" size="4" pos="20" show="127.0.0.1" value="7f000001"/>
    <field name="ip.host" showname="Source or Destination Host: 127.0.0.1" hide="yes" size="4" pos="20" show="127.0.0.1" value="7f000001"/>
    <field name="ip.stream" showname="Stream index: 0" size="0" pos="24" show="0"/>
  </proto>
  <proto name="tcp" showname="Transmission Control Protocol, Src Port: 56080, Dst Port: 18123, Seq: 323, Ack: 911, Len: 0" size="32" pos="24">
    <field name="tcp.srcport" showname="Source Port: 56080" size="2" pos="24" show="56080" value="db10"/>
    <field name="tcp.dstport" showname="Destination Port: 18123" size="2" pos="26" show="18123" value="46cb"/>
    <field name="tcp.port" showname="Source or Destination Port: 56080" hide="yes" size="2" pos="24" show="56080" value="db10"/>
    <field name="tcp.port" showname="Source or Destination Port: 18123" hide="yes" size="2" pos="26" show="18123" value="46cb"/>
    <field name="tcp.stream" showname="Stream index: 0" size="0" pos="24" show="0"/>
    <field name="tcp.stream.pnum" showname="Stream Packet Number: 13" size="0" pos="24" show="13"/>
    <field name="tcp.completeness" showname="Conversation completeness: Incomplete, DATA (15)" size="0" pos="24" show="15">
      <field name="tcp.completeness.rst" showname="..0. .... = RST: Absent" size="0" pos="0" show="False"/>
      <field name="tcp.completeness.fin" showname="...0 .... = FIN: Absent" size="0" pos="0" show="False"/>
      <field name="tcp.completeness.data" showname=".... 1... = Data: Present" size="0" pos="0" show="True"/>
      <field name="tcp.completeness.ack" showname=".... .1.. = ACK: Present" size="0" pos="0" show="True"/>
      <field name="tcp.completeness.syn-ack" showname=".... ..1. = SYN-ACK: Present" size="0" pos="0" show="True"/>
      <field name="tcp.completeness.syn" showname=".... ...1 = SYN: Present" size="0" pos="0" show="True"/>
      <field name="tcp.completeness.str" showname="Completeness Flags: ··DASS" size="0" pos="24" show="··DASS"/>
    </field>
    <field name="tcp.len" showname="TCP Segment Len: 0" size="0" pos="24" show="0"/>
    <field name="tcp.seq" showname="Sequence Number: 323    (relative sequence number)" size="4" pos="28" show="323" value="34119949"/>
    <field name="tcp.seq_raw" showname="Sequence Number (raw): 873568585" size="4" pos="28" show="873568585" value="34119949"/>
    <field name="tcp.nxtseq" showname="Next Sequence Number: 324    (relative sequence number)" size="0" pos="24" show="324"/>
    <field name="tcp.ack" showname="Acknowledgment Number: 911    (relative ack number)" size="4" pos="32" show="911" value="a8ebb0a7"/>
    <field name="tcp.ack_raw" showname="Acknowledgment number (raw): 2834018471" size="4" pos="32" show="2834018471" value="a8ebb0a7"/>
    <field name="tcp.hdr_len" showname="1000 .... = Header Length: 32 bytes (8)" size="1" pos="36" show="32" value="80"/>
    <field name="tcp.flags" showname="Flags: 0x011 (FIN, ACK)" size="2" pos="36" show="0x0011" value="11" unmaskedvalue="8011">
      <field name="tcp.flags.res" showname="000. .... .... = Reserved: Not set" size="1" pos="36" show="False" value="0" unmaskedvalue="80"/>
      <field name="tcp.flags.ae" showname="...0 .... .... = Accurate ECN: Not set" size="1" pos="36" show="False" value="0" unmaskedvalue="80"/>
      <field name="tcp.flags.cwr" showname=".... 0... .... = Congestion Window Reduced: Not set" size="1" pos="37" show="False" value="0" unmaskedvalue="11"/>
      <field name="tcp.flags.ece" showname=".... .0.. .... = ECN-Echo: Not set" size="1" pos="37" show="False" value="0" unmaskedvalue="11"/>
      <field name="tcp.flags.urg" showname=".... ..0. .... = Urgent: Not set" size="1" pos="37" show="False" value="0" unmaskedvalue="11"/>
      <field name="tcp.flags.ack" showname=".... ...1 .... = Acknowledgment: Set" size="1" pos="37" show="True" value="1" unmaskedvalue="11"/>
      <field name="tcp.flags.push" showname=".... .... 0... = Push: Not set" size="1" pos="37" show="False" value="0" unmaskedvalue="11"/>
      <field name="tcp.flags.reset" showname=".... .... .0.. = Reset: Not set" size="1" pos="37" show="False" value="0" unmaskedvalue="11"/>
      <field name="tcp.flags.syn" showname=".... .... ..0. = Syn: Not set" size="1" pos="37" show="False" value="0" unmaskedvalue="11"/>
      <field name="tcp.flags.fin" showname=".... .... ...1 = Fin: Set" size="1" pos="37" show="True" value="1" unmaskedvalue="11">
        <field name="_ws.expert" showname="Expert Info (Chat/Sequence): Connection finish (FIN)" size="0" pos="37">
          <field name="tcp.connection.fin" showname="Connection finish (FIN)" size="0" pos="0" show="" value=""/>
          <field name="_ws.expert.message" showname="Message: Connection finish (FIN)" hide="yes" size="0" pos="0" show="Connection finish (FIN)"/>
          <field name="_ws.expert.severity" showname="Severity level: Chat" size="0" pos="0" show="2097152"/>
          <field name="_ws.expert.group" showname="Group: Sequence" size="0" pos="0" show="33554432"/>
        </field>
      </field>
      <field name="tcp.flags.str" showname="TCP Flags: ·······A···F" size="2" pos="36" show="·······A···F" value="8011">
        <field name="_ws.expert" showname="Expert Info (Note/Sequence): This frame initiates the connection closing" size="0" pos="36">
          <field name="tcp.connection.fin_active" showname="This frame initiates the connection closing" size="0" pos="0" show="" value=""/>
          <field name="_ws.expert.message" showname="Message: This frame initiates the connection closing" hide="yes" size="0" pos="0" show="This frame initiates the connection closing"/>
          <field name="_ws.expert.severity" showname="Severity level: Note" size="0" pos="0" show="4194304"/>
          <field name="_ws.expert.group" showname="Group: Sequence" size="0" pos="0" show="33554432"/>
        </field>
      </field>
    </field>
    <field name="tcp.window_size_value" showname="Window: 6366" size="2" pos="38" show="6366" value="18de"/>
    <field name="tcp.window_size" showname="Calculated window size: 407424" size="2" pos="38" show="407424" value="18de"/>
    <field name="tcp.window_size_scalefactor" showname="Window size scaling factor: 64" size="2" pos="38" show="64" value="18de"/>
    <field name="tcp.checksum" showname="Checksum: 0xfe28 [unverified]" size="2" pos="40" show="0xfe28" value="fe28"/>
    <field name="tcp.checksum.status" showname="Checksum Status: Unverified" size="0" pos="40" show="2"/>
    <field name="tcp.urgent_pointer" showname="Urgent Pointer: 0" size="2" pos="42" show="0" value="0000"/>
    <field name="tcp.options" showname="Options: (12 bytes), No-Operation (NOP), No-Operation (NOP), Timestamps" size="12" pos="44" show="01:01:08:0a:87:12:aa:5b:94:78:ca:d7" value="0101080a8712aa5b9478cad7">
      <field name="tcp.options.nop" showname="TCP Option - No-Operation (NOP)" size="1" pos="44" show="01" value="01">
        <field name="tcp.option_kind" showname="Kind: No-Operation (1)" size="1" pos="44" show="1" value="01"/>
      </field>
      <field name="tcp.options.nop" showname="TCP Option - No-Operation (NOP)" size="1" pos="45" show="01" value="01">
        <field name="tcp.option_kind" showname="Kind: No-Operation (1)" size="1" pos="45" show="1" value="01"/>
      </field>
      <field name="tcp.options.timestamp" showname="TCP Option - Timestamps: TSval 2266147419, TSecr 2490944215" size="10" pos="46" show="08:0a:87:12:aa:5b:94:78:ca:d7" value="080a8712aa5b9478cad7">
        <field name="tcp.option_kind" showname="Kind: Time Stamp Option (8)" size="1" pos="46" show="8" value="08"/>
        <field name="tcp.option_len" showname="Length: 10" size="1" pos="47" show="10" value="0a"/>
        <field name="tcp.options.timestamp.tsval" showname="Timestamp value: 2266147419" size="4" pos="48" show="2266147419" value="8712aa5b"/>
        <field name="tcp.options.timestamp.tsecr" showname="Timestamp echo reply: 2490944215" size="4" pos="52" show="2490944215" value="9478cad7"/>
      </field>
    </field>
    <field name="" show="Timestamps" size="0" pos="24">
      <field name="tcp.time_relative" showname="Time since first frame in this TCP stream: 11.160000 milliseconds" size="0" pos="24" show="0.011160000"/>
      <field name="tcp.time_delta" showname="Time since previous frame in this TCP stream: 182.000 microseconds" size="0" pos="24" show="0.000182000"/>
    </field>
    <field name="tcp.stream.client.contiguity_count" showname="Client Contiguous Streams: 1" size="0" pos="24" show="1"/>
    <field name="tcp.stream.server.contiguity_count" showname="Server Contiguous Streams: 1" size="0" pos="24" show="1"/>
  </proto>
</packet>


<packet>
  <proto name="geninfo" pos="0" showname="General information" size="56">
    <field name="num" pos="0" show="14" showname="Number" value="e" size="56"/>
    <field name="len" pos="0" show="56" showname="Frame Length" value="38" size="56"/>
    <field name="caplen" pos="0" show="56" showname="Captured Length" value="38" size="56"/>
    <field name="timestamp" pos="0" show="Sep 14, 2026 06:56:24.070223000 MSK" showname="Captured Time" value="1789358184.070223000" size="56"/>
  </proto>
  <proto name="frame" showname="Frame 14: Packet, 56 bytes on wire (448 bits), 56 bytes captured (448 bits) on interface lo0, id 0" size="56" pos="0">
    <field name="frame.section_number" showname="Section number: 1" size="0" pos="0" show="1"/>
    <field name="frame.interface_id" showname="Interface id: 0 (lo0)" size="0" pos="0" show="0">
      <field name="frame.interface_name" showname="Interface name: lo0" size="0" pos="0" show="lo0"/>
      <field name="frame.interface_description" showname="Interface description: Loopback" size="0" pos="0" show="Loopback"/>
    </field>
    <field name="frame.encap_type" showname="Encapsulation type: NULL/Loopback (15)" size="0" pos="0" show="15"/>
    <field name="frame.time" showname="Arrival Time: Sep 14, 2026 06:56:24.070223000 MSK" size="0" pos="0" show="2026-09-14T06:56:24.070223000+0300"/>
    <field name="frame.time_utc" showname="UTC Arrival Time: Sep 14, 2026 03:56:24.070223000 UTC" size="0" pos="0" show="2026-09-14T03:56:24.070223000Z"/>
    <field name="frame.time_epoch" showname="Epoch Arrival Time: 1789358184.070223000" size="0" pos="0" show="1789358184.070223000"/>
    <field name="frame.offset_shift" showname="Time shift for this packet: 0.000000000 seconds" size="0" pos="0" show="0.000000000"/>
    <field name="frame.time_delta" showname="Time delta from previous captured frame: 26.000 microseconds" size="0" pos="0" show="0.000026000"/>
    <field name="frame.time_delta_displayed" showname="Time delta from previous displayed frame: 26.000 microseconds" size="0" pos="0" show="0.000026000"/>
    <field name="frame.time_relative" showname="Time since reference or first frame: 11.186000 milliseconds" size="0" pos="0" show="0.011186000"/>
    <field name="frame.number" showname="Frame Number: 14" size="0" pos="0" show="14"/>
    <field name="frame.len" showname="Frame Length: 56 bytes (448 bits)" size="0" pos="0" show="56"/>
    <field name="frame.cap_len" showname="Capture Length: 56 bytes (448 bits)" size="0" pos="0" show="56"/>
    <field name="frame.marked" showname="Frame is marked: False" size="0" pos="0" show="False"/>
    <field name="frame.ignored" showname="Frame is ignored: False" size="0" pos="0" show="False"/>
    <field name="frame.protocols" showname="Protocols in frame: null:ip:tcp" size="0" pos="0" show="null:ip:tcp"/>
    <field name="frame.encoding" showname="Character encoding: ASCII (0)" size="0" pos="0" show="0"/>
  </proto>
  <proto name="null" showname="Null/Loopback" size="4" pos="0">
    <field name="null.family" showname="Family: IP (2)" size="4" pos="0" show="2" value="02000000"/>
  </proto>
  <proto name="ip" showname="Internet Protocol Version 4, Src: 127.0.0.1, Dst: 127.0.0.1" size="20" pos="4">
    <field name="ip.version" showname="0100 .... = Version: 4" size="1" pos="4" show="4" value="45"/>
    <field name="ip.hdr_len" showname=".... 0101 = Header Length: 20 bytes (5)" size="1" pos="4" show="20" value="45"/>
    <field name="ip.dsfield" showname="Differentiated Services Field: 0x00 (DSCP: CS0, ECN: Not-ECT)" size="1" pos="5" show="0x00" value="00">
      <field name="ip.dsfield.dscp" showname="0000 00.. = Differentiated Services Codepoint: Default (0)" size="1" pos="5" show="0" value="0" unmaskedvalue="00"/>
      <field name="ip.dsfield.ecn" showname=".... ..00 = Explicit Congestion Notification: Not ECN-Capable Transport (0)" size="1" pos="5" show="0" value="0" unmaskedvalue="00"/>
    </field>
    <field name="ip.len" showname="Total Length: 52" size="2" pos="6" show="52" value="0034"/>
    <field name="ip.id" showname="Identification: 0x0000 (0)" size="2" pos="8" show="0x0000" value="0000"/>
    <field name="ip.flags" showname="010. .... = Flags: 0x2, Don&#x27;t fragment" size="1" pos="10" show="0x02" value="2" unmaskedvalue="40">
      <field name="ip.flags.rb" showname="0... .... = Reserved bit: Not set" size="1" pos="10" show="False" value="0" unmaskedvalue="40"/>
      <field name="ip.flags.df" showname=".1.. .... = Don&#x27;t fragment: Set" size="1" pos="10" show="True" value="1" unmaskedvalue="40"/>
      <field name="ip.flags.mf" showname="..0. .... = More fragments: Not set" size="1" pos="10" show="False" value="0" unmaskedvalue="40"/>
    </field>
    <field name="ip.frag_offset" showname="...0 0000 0000 0000 = Fragment Offset: 0" size="2" pos="10" show="0" value="0" unmaskedvalue="4000"/>
    <field name="ip.ttl" showname="Time to Live: 64" size="1" pos="12" show="64" value="40"/>
    <field name="ip.proto" showname="Protocol: TCP (6)" size="1" pos="13" show="6" value="06"/>
    <field name="ip.checksum" showname="Header Checksum: 0x0000 [validation disabled]" size="2" pos="14" show="0x0000" value="0000"/>
    <field name="ip.checksum.status" showname="Header checksum status: Unverified" size="0" pos="14" show="2"/>
    <field name="ip.src" showname="Source Address: 127.0.0.1" size="4" pos="16" show="127.0.0.1" value="7f000001"/>
    <field name="ip.addr" showname="Source or Destination Address: 127.0.0.1" hide="yes" size="4" pos="16" show="127.0.0.1" value="7f000001"/>
    <field name="ip.src_host" showname="Source Host: 127.0.0.1" hide="yes" size="4" pos="16" show="127.0.0.1" value="7f000001"/>
    <field name="ip.host" showname="Source or Destination Host: 127.0.0.1" hide="yes" size="4" pos="16" show="127.0.0.1" value="7f000001"/>
    <field name="ip.dst" showname="Destination Address: 127.0.0.1" size="4" pos="20" show="127.0.0.1" value="7f000001"/>
    <field name="ip.addr" showname="Source or Destination Address: 127.0.0.1" hide="yes" size="4" pos="20" show="127.0.0.1" value="7f000001"/>
    <field name="ip.dst_host" showname="Destination Host: 127.0.0.1" hide="yes" size="4" pos="20" show="127.0.0.1" value="7f000001"/>
    <field name="ip.host" showname="Source or Destination Host: 127.0.0.1" hide="yes" size="4" pos="20" show="127.0.0.1" value="7f000001"/>
    <field name="ip.stream" showname="Stream index: 0" size="0" pos="24" show="0"/>
  </proto>
  <proto name="tcp" showname="Transmission Control Protocol, Src Port: 18123, Dst Port: 56080, Seq: 911, Ack: 324, Len: 0" size="32" pos="24">
    <field name="tcp.srcport" showname="Source Port: 18123" size="2" pos="24" show="18123" value="46cb"/>
    <field name="tcp.dstport" showname="Destination Port: 56080" size="2" pos="26" show="56080" value="db10"/>
    <field name="tcp.port" showname="Source or Destination Port: 18123" hide="yes" size="2" pos="24" show="18123" value="46cb"/>
    <field name="tcp.port" showname="Source or Destination Port: 56080" hide="yes" size="2" pos="26" show="56080" value="db10"/>
    <field name="tcp.stream" showname="Stream index: 0" size="0" pos="24" show="0"/>
    <field name="tcp.stream.pnum" showname="Stream Packet Number: 14" size="0" pos="24" show="14"/>
    <field name="tcp.completeness" showname="Conversation completeness: Complete, WITH_DATA (31)" size="0" pos="24" show="31">
      <field name="tcp.completeness.rst" showname="..0. .... = RST: Absent" size="0" pos="0" show="False"/>
      <field name="tcp.completeness.fin" showname="...1 .... = FIN: Present" size="0" pos="0" show="True"/>
      <field name="tcp.completeness.data" showname=".... 1... = Data: Present" size="0" pos="0" show="True"/>
      <field name="tcp.completeness.ack" showname=".... .1.. = ACK: Present" size="0" pos="0" show="True"/>
      <field name="tcp.completeness.syn-ack" showname=".... ..1. = SYN-ACK: Present" size="0" pos="0" show="True"/>
      <field name="tcp.completeness.syn" showname=".... ...1 = SYN: Present" size="0" pos="0" show="True"/>
      <field name="tcp.completeness.str" showname="Completeness Flags: ·FDASS" size="0" pos="24" show="·FDASS"/>
    </field>
    <field name="tcp.len" showname="TCP Segment Len: 0" size="0" pos="24" show="0"/>
    <field name="tcp.seq" showname="Sequence Number: 911    (relative sequence number)" size="4" pos="28" show="911" value="a8ebb0a7"/>
    <field name="tcp.seq_raw" showname="Sequence Number (raw): 2834018471" size="4" pos="28" show="2834018471" value="a8ebb0a7"/>
    <field name="tcp.nxtseq" showname="Next Sequence Number: 911    (relative sequence number)" size="0" pos="24" show="911"/>
    <field name="tcp.ack" showname="Acknowledgment Number: 324    (relative ack number)" size="4" pos="32" show="324" value="3411994a"/>
    <field name="tcp.ack_raw" showname="Acknowledgment number (raw): 873568586" size="4" pos="32" show="873568586" value="3411994a"/>
    <field name="tcp.hdr_len" showname="1000 .... = Header Length: 32 bytes (8)" size="1" pos="36" show="32" value="80"/>
    <field name="tcp.flags" showname="Flags: 0x010 (ACK)" size="2" pos="36" show="0x0010" value="10" unmaskedvalue="8010">
      <field name="tcp.flags.res" showname="000. .... .... = Reserved: Not set" size="1" pos="36" show="False" value="0" unmaskedvalue="80"/>
      <field name="tcp.flags.ae" showname="...0 .... .... = Accurate ECN: Not set" size="1" pos="36" show="False" value="0" unmaskedvalue="80"/>
      <field name="tcp.flags.cwr" showname=".... 0... .... = Congestion Window Reduced: Not set" size="1" pos="37" show="False" value="0" unmaskedvalue="10"/>
      <field name="tcp.flags.ece" showname=".... .0.. .... = ECN-Echo: Not set" size="1" pos="37" show="False" value="0" unmaskedvalue="10"/>
      <field name="tcp.flags.urg" showname=".... ..0. .... = Urgent: Not set" size="1" pos="37" show="False" value="0" unmaskedvalue="10"/>
      <field name="tcp.flags.ack" showname=".... ...1 .... = Acknowledgment: Set" size="1" pos="37" show="True" value="1" unmaskedvalue="10"/>
      <field name="tcp.flags.push" showname=".... .... 0... = Push: Not set" size="1" pos="37" show="False" value="0" unmaskedvalue="10"/>
      <field name="tcp.flags.reset" showname=".... .... .0.. = Reset: Not set" size="1" pos="37" show="False" value="0" unmaskedvalue="10"/>
      <field name="tcp.flags.syn" showname=".... .... ..0. = Syn: Not set" size="1" pos="37" show="False" value="0" unmaskedvalue="10"/>
      <field name="tcp.flags.fin" showname=".... .... ...0 = Fin: Not set" size="1" pos="37" show="False" value="0" unmaskedvalue="10"/>
      <field name="tcp.flags.str" showname="TCP Flags: ·······A····" size="2" pos="36" show="·······A····" value="8010"/>
    </field>
    <field name="tcp.window_size_value" showname="Window: 6376" size="2" pos="38" show="6376" value="18e8"/>
    <field name="tcp.window_size" showname="Calculated window size: 408064" size="2" pos="38" show="408064" value="18e8"/>
    <field name="tcp.window_size_scalefactor" showname="Window size scaling factor: 64" size="2" pos="38" show="64" value="18e8"/>
    <field name="tcp.checksum" showname="Checksum: 0xfe28 [unverified]" size="2" pos="40" show="0xfe28" value="fe28"/>
    <field name="tcp.checksum.status" showname="Checksum Status: Unverified" size="0" pos="40" show="2"/>
    <field name="tcp.urgent_pointer" showname="Urgent Pointer: 0" size="2" pos="42" show="0" value="0000"/>
    <field name="tcp.options" showname="Options: (12 bytes), No-Operation (NOP), No-Operation (NOP), Timestamps" size="12" pos="44" show="01:01:08:0a:94:78:ca:d7:87:12:aa:5b" value="0101080a9478cad78712aa5b">
      <field name="tcp.options.nop" showname="TCP Option - No-Operation (NOP)" size="1" pos="44" show="01" value="01">
        <field name="tcp.option_kind" showname="Kind: No-Operation (1)" size="1" pos="44" show="1" value="01"/>
      </field>
      <field name="tcp.options.nop" showname="TCP Option - No-Operation (NOP)" size="1" pos="45" show="01" value="01">
        <field name="tcp.option_kind" showname="Kind: No-Operation (1)" size="1" pos="45" show="1" value="01"/>
      </field>
      <field name="tcp.options.timestamp" showname="TCP Option - Timestamps: TSval 2490944215, TSecr 2266147419" size="10" pos="46" show="08:0a:94:78:ca:d7:87:12:aa:5b" value="080a9478cad78712aa5b">
        <field name="tcp.option_kind" showname="Kind: Time Stamp Option (8)" size="1" pos="46" show="8" value="08"/>
        <field name="tcp.option_len" showname="Length: 10" size="1" pos="47" show="10" value="0a"/>
        <field name="tcp.options.timestamp.tsval" showname="Timestamp value: 2490944215" size="4" pos="48" show="2490944215" value="9478cad7"/>
        <field name="tcp.options.timestamp.tsecr" showname="Timestamp echo reply: 2266147419" size="4" pos="52" show="2266147419" value="8712aa5b"/>
      </field>
    </field>
    <field name="" show="Timestamps" size="0" pos="24">
      <field name="tcp.time_relative" showname="Time since first frame in this TCP stream: 11.186000 milliseconds" size="0" pos="24" show="0.011186000"/>
      <field name="tcp.time_delta" showname="Time since previous frame in this TCP stream: 26.000 microseconds" size="0" pos="24" show="0.000026000"/>
    </field>
    <field name="tcp.analysis" showname="SEQ/ACK analysis" size="0" pos="24" show="" value="">
      <field name="tcp.analysis.acks_frame" showname="This is an ACK to the segment in frame: 13" size="0" pos="24" show="13"/>
      <field name="tcp.analysis.ack_rtt" showname="The RTT to ACK the segment was: 26.000 microseconds" size="0" pos="24" show="0.000026000"/>
      <field name="tcp.analysis.initial_rtt" showname="iRTT: 173.000 microseconds" size="0" pos="24" show="0.000173000"/>
    </field>
    <field name="tcp.stream.client.contiguity_count" showname="Client Contiguous Streams: 1" size="0" pos="24" show="1"/>
    <field name="tcp.stream.server.contiguity_count" showname="Server Contiguous Streams: 1" size="0" pos="24" show="1"/>
  </proto>
</packet>


<packet>
  <proto name="geninfo" pos="0" showname="General information" size="56">
    <field name="num" pos="0" show="15" showname="Number" value="f" size="56"/>
    <field name="len" pos="0" show="56" showname="Frame Length" value="38" size="56"/>
    <field name="caplen" pos="0" show="56" showname="Captured Length" value="38" size="56"/>
    <field name="timestamp" pos="0" show="Sep 14, 2026 06:56:24.070781000 MSK" showname="Captured Time" value="1789358184.070781000" size="56"/>
  </proto>
  <proto name="frame" showname="Frame 15: Packet, 56 bytes on wire (448 bits), 56 bytes captured (448 bits) on interface lo0, id 0" size="56" pos="0">
    <field name="frame.section_number" showname="Section number: 1" size="0" pos="0" show="1"/>
    <field name="frame.interface_id" showname="Interface id: 0 (lo0)" size="0" pos="0" show="0">
      <field name="frame.interface_name" showname="Interface name: lo0" size="0" pos="0" show="lo0"/>
      <field name="frame.interface_description" showname="Interface description: Loopback" size="0" pos="0" show="Loopback"/>
    </field>
    <field name="frame.encap_type" showname="Encapsulation type: NULL/Loopback (15)" size="0" pos="0" show="15"/>
    <field name="frame.time" showname="Arrival Time: Sep 14, 2026 06:56:24.070781000 MSK" size="0" pos="0" show="2026-09-14T06:56:24.070781000+0300"/>
    <field name="frame.time_utc" showname="UTC Arrival Time: Sep 14, 2026 03:56:24.070781000 UTC" size="0" pos="0" show="2026-09-14T03:56:24.070781000Z"/>
    <field name="frame.time_epoch" showname="Epoch Arrival Time: 1789358184.070781000" size="0" pos="0" show="1789358184.070781000"/>
    <field name="frame.offset_shift" showname="Time shift for this packet: 0.000000000 seconds" size="0" pos="0" show="0.000000000"/>
    <field name="frame.time_delta" showname="Time delta from previous captured frame: 558.000 microseconds" size="0" pos="0" show="0.000558000"/>
    <field name="frame.time_delta_displayed" showname="Time delta from previous displayed frame: 558.000 microseconds" size="0" pos="0" show="0.000558000"/>
    <field name="frame.time_relative" showname="Time since reference or first frame: 11.744000 milliseconds" size="0" pos="0" show="0.011744000"/>
    <field name="frame.number" showname="Frame Number: 15" size="0" pos="0" show="15"/>
    <field name="frame.len" showname="Frame Length: 56 bytes (448 bits)" size="0" pos="0" show="56"/>
    <field name="frame.cap_len" showname="Capture Length: 56 bytes (448 bits)" size="0" pos="0" show="56"/>
    <field name="frame.marked" showname="Frame is marked: False" size="0" pos="0" show="False"/>
    <field name="frame.ignored" showname="Frame is ignored: False" size="0" pos="0" show="False"/>
    <field name="frame.protocols" showname="Protocols in frame: null:ip:tcp" size="0" pos="0" show="null:ip:tcp"/>
    <field name="frame.encoding" showname="Character encoding: ASCII (0)" size="0" pos="0" show="0"/>
  </proto>
  <proto name="null" showname="Null/Loopback" size="4" pos="0">
    <field name="null.family" showname="Family: IP (2)" size="4" pos="0" show="2" value="02000000"/>
  </proto>
  <proto name="ip" showname="Internet Protocol Version 4, Src: 127.0.0.1, Dst: 127.0.0.1" size="20" pos="4">
    <field name="ip.version" showname="0100 .... = Version: 4" size="1" pos="4" show="4" value="45"/>
    <field name="ip.hdr_len" showname=".... 0101 = Header Length: 20 bytes (5)" size="1" pos="4" show="20" value="45"/>
    <field name="ip.dsfield" showname="Differentiated Services Field: 0x00 (DSCP: CS0, ECN: Not-ECT)" size="1" pos="5" show="0x00" value="00">
      <field name="ip.dsfield.dscp" showname="0000 00.. = Differentiated Services Codepoint: Default (0)" size="1" pos="5" show="0" value="0" unmaskedvalue="00"/>
      <field name="ip.dsfield.ecn" showname=".... ..00 = Explicit Congestion Notification: Not ECN-Capable Transport (0)" size="1" pos="5" show="0" value="0" unmaskedvalue="00"/>
    </field>
    <field name="ip.len" showname="Total Length: 52" size="2" pos="6" show="52" value="0034"/>
    <field name="ip.id" showname="Identification: 0x0000 (0)" size="2" pos="8" show="0x0000" value="0000"/>
    <field name="ip.flags" showname="010. .... = Flags: 0x2, Don&#x27;t fragment" size="1" pos="10" show="0x02" value="2" unmaskedvalue="40">
      <field name="ip.flags.rb" showname="0... .... = Reserved bit: Not set" size="1" pos="10" show="False" value="0" unmaskedvalue="40"/>
      <field name="ip.flags.df" showname=".1.. .... = Don&#x27;t fragment: Set" size="1" pos="10" show="True" value="1" unmaskedvalue="40"/>
      <field name="ip.flags.mf" showname="..0. .... = More fragments: Not set" size="1" pos="10" show="False" value="0" unmaskedvalue="40"/>
    </field>
    <field name="ip.frag_offset" showname="...0 0000 0000 0000 = Fragment Offset: 0" size="2" pos="10" show="0" value="0" unmaskedvalue="4000"/>
    <field name="ip.ttl" showname="Time to Live: 64" size="1" pos="12" show="64" value="40"/>
    <field name="ip.proto" showname="Protocol: TCP (6)" size="1" pos="13" show="6" value="06"/>
    <field name="ip.checksum" showname="Header Checksum: 0x0000 [validation disabled]" size="2" pos="14" show="0x0000" value="0000"/>
    <field name="ip.checksum.status" showname="Header checksum status: Unverified" size="0" pos="14" show="2"/>
    <field name="ip.src" showname="Source Address: 127.0.0.1" size="4" pos="16" show="127.0.0.1" value="7f000001"/>
    <field name="ip.addr" showname="Source or Destination Address: 127.0.0.1" hide="yes" size="4" pos="16" show="127.0.0.1" value="7f000001"/>
    <field name="ip.src_host" showname="Source Host: 127.0.0.1" hide="yes" size="4" pos="16" show="127.0.0.1" value="7f000001"/>
    <field name="ip.host" showname="Source or Destination Host: 127.0.0.1" hide="yes" size="4" pos="16" show="127.0.0.1" value="7f000001"/>
    <field name="ip.dst" showname="Destination Address: 127.0.0.1" size="4" pos="20" show="127.0.0.1" value="7f000001"/>
    <field name="ip.addr" showname="Source or Destination Address: 127.0.0.1" hide="yes" size="4" pos="20" show="127.0.0.1" value="7f000001"/>
    <field name="ip.dst_host" showname="Destination Host: 127.0.0.1" hide="yes" size="4" pos="20" show="127.0.0.1" value="7f000001"/>
    <field name="ip.host" showname="Source or Destination Host: 127.0.0.1" hide="yes" size="4" pos="20" show="127.0.0.1" value="7f000001"/>
    <field name="ip.stream" showname="Stream index: 0" size="0" pos="24" show="0"/>
  </proto>
  <proto name="tcp" showname="Transmission Control Protocol, Src Port: 18123, Dst Port: 56080, Seq: 911, Ack: 324, Len: 0" size="32" pos="24">
    <field name="tcp.srcport" showname="Source Port: 18123" size="2" pos="24" show="18123" value="46cb"/>
    <field name="tcp.dstport" showname="Destination Port: 56080" size="2" pos="26" show="56080" value="db10"/>
    <field name="tcp.port" showname="Source or Destination Port: 18123" hide="yes" size="2" pos="24" show="18123" value="46cb"/>
    <field name="tcp.port" showname="Source or Destination Port: 56080" hide="yes" size="2" pos="26" show="56080" value="db10"/>
    <field name="tcp.stream" showname="Stream index: 0" size="0" pos="24" show="0"/>
    <field name="tcp.stream.pnum" showname="Stream Packet Number: 15" size="0" pos="24" show="15"/>
    <field name="tcp.completeness" showname="Conversation completeness: Complete, WITH_DATA (31)" size="0" pos="24" show="31">
      <field name="tcp.completeness.rst" showname="..0. .... = RST: Absent" size="0" pos="0" show="False"/>
      <field name="tcp.completeness.fin" showname="...1 .... = FIN: Present" size="0" pos="0" show="True"/>
      <field name="tcp.completeness.data" showname=".... 1... = Data: Present" size="0" pos="0" show="True"/>
      <field name="tcp.completeness.ack" showname=".... .1.. = ACK: Present" size="0" pos="0" show="True"/>
      <field name="tcp.completeness.syn-ack" showname=".... ..1. = SYN-ACK: Present" size="0" pos="0" show="True"/>
      <field name="tcp.completeness.syn" showname=".... ...1 = SYN: Present" size="0" pos="0" show="True"/>
      <field name="tcp.completeness.str" showname="Completeness Flags: ·FDASS" size="0" pos="24" show="·FDASS"/>
    </field>
    <field name="tcp.len" showname="TCP Segment Len: 0" size="0" pos="24" show="0"/>
    <field name="tcp.seq" showname="Sequence Number: 911    (relative sequence number)" size="4" pos="28" show="911" value="a8ebb0a7"/>
    <field name="tcp.seq_raw" showname="Sequence Number (raw): 2834018471" size="4" pos="28" show="2834018471" value="a8ebb0a7"/>
    <field name="tcp.nxtseq" showname="Next Sequence Number: 912    (relative sequence number)" size="0" pos="24" show="912"/>
    <field name="tcp.ack" showname="Acknowledgment Number: 324    (relative ack number)" size="4" pos="32" show="324" value="3411994a"/>
    <field name="tcp.ack_raw" showname="Acknowledgment number (raw): 873568586" size="4" pos="32" show="873568586" value="3411994a"/>
    <field name="tcp.hdr_len" showname="1000 .... = Header Length: 32 bytes (8)" size="1" pos="36" show="32" value="80"/>
    <field name="tcp.flags" showname="Flags: 0x011 (FIN, ACK)" size="2" pos="36" show="0x0011" value="11" unmaskedvalue="8011">
      <field name="tcp.flags.res" showname="000. .... .... = Reserved: Not set" size="1" pos="36" show="False" value="0" unmaskedvalue="80"/>
      <field name="tcp.flags.ae" showname="...0 .... .... = Accurate ECN: Not set" size="1" pos="36" show="False" value="0" unmaskedvalue="80"/>
      <field name="tcp.flags.cwr" showname=".... 0... .... = Congestion Window Reduced: Not set" size="1" pos="37" show="False" value="0" unmaskedvalue="11"/>
      <field name="tcp.flags.ece" showname=".... .0.. .... = ECN-Echo: Not set" size="1" pos="37" show="False" value="0" unmaskedvalue="11"/>
      <field name="tcp.flags.urg" showname=".... ..0. .... = Urgent: Not set" size="1" pos="37" show="False" value="0" unmaskedvalue="11"/>
      <field name="tcp.flags.ack" showname=".... ...1 .... = Acknowledgment: Set" size="1" pos="37" show="True" value="1" unmaskedvalue="11"/>
      <field name="tcp.flags.push" showname=".... .... 0... = Push: Not set" size="1" pos="37" show="False" value="0" unmaskedvalue="11"/>
      <field name="tcp.flags.reset" showname=".... .... .0.. = Reset: Not set" size="1" pos="37" show="False" value="0" unmaskedvalue="11"/>
      <field name="tcp.flags.syn" showname=".... .... ..0. = Syn: Not set" size="1" pos="37" show="False" value="0" unmaskedvalue="11"/>
      <field name="tcp.flags.fin" showname=".... .... ...1 = Fin: Set" size="1" pos="37" show="True" value="1" unmaskedvalue="11">
        <field name="_ws.expert" showname="Expert Info (Chat/Sequence): Connection finish (FIN)" size="0" pos="37">
          <field name="tcp.connection.fin" showname="Connection finish (FIN)" size="0" pos="0" show="" value=""/>
          <field name="_ws.expert.message" showname="Message: Connection finish (FIN)" hide="yes" size="0" pos="0" show="Connection finish (FIN)"/>
          <field name="_ws.expert.severity" showname="Severity level: Chat" size="0" pos="0" show="2097152"/>
          <field name="_ws.expert.group" showname="Group: Sequence" size="0" pos="0" show="33554432"/>
        </field>
      </field>
      <field name="tcp.flags.str" showname="TCP Flags: ·······A···F" size="2" pos="36" show="·······A···F" value="8011">
        <field name="_ws.expert" showname="Expert Info (Note/Sequence): This frame undergoes the connection closing" size="0" pos="36">
          <field name="tcp.connection.fin_passive" showname="This frame undergoes the connection closing" size="0" pos="0" show="" value=""/>
          <field name="_ws.expert.message" showname="Message: This frame undergoes the connection closing" hide="yes" size="0" pos="0" show="This frame undergoes the connection closing"/>
          <field name="_ws.expert.severity" showname="Severity level: Note" size="0" pos="0" show="4194304"/>
          <field name="_ws.expert.group" showname="Group: Sequence" size="0" pos="0" show="33554432"/>
        </field>
      </field>
    </field>
    <field name="tcp.window_size_value" showname="Window: 6376" size="2" pos="38" show="6376" value="18e8"/>
    <field name="tcp.window_size" showname="Calculated window size: 408064" size="2" pos="38" show="408064" value="18e8"/>
    <field name="tcp.window_size_scalefactor" showname="Window size scaling factor: 64" size="2" pos="38" show="64" value="18e8"/>
    <field name="tcp.checksum" showname="Checksum: 0xfe28 [unverified]" size="2" pos="40" show="0xfe28" value="fe28"/>
    <field name="tcp.checksum.status" showname="Checksum Status: Unverified" size="0" pos="40" show="2"/>
    <field name="tcp.urgent_pointer" showname="Urgent Pointer: 0" size="2" pos="42" show="0" value="0000"/>
    <field name="tcp.options" showname="Options: (12 bytes), No-Operation (NOP), No-Operation (NOP), Timestamps" size="12" pos="44" show="01:01:08:0a:94:78:ca:d8:87:12:aa:5b" value="0101080a9478cad88712aa5b">
      <field name="tcp.options.nop" showname="TCP Option - No-Operation (NOP)" size="1" pos="44" show="01" value="01">
        <field name="tcp.option_kind" showname="Kind: No-Operation (1)" size="1" pos="44" show="1" value="01"/>
      </field>
      <field name="tcp.options.nop" showname="TCP Option - No-Operation (NOP)" size="1" pos="45" show="01" value="01">
        <field name="tcp.option_kind" showname="Kind: No-Operation (1)" size="1" pos="45" show="1" value="01"/>
      </field>
      <field name="tcp.options.timestamp" showname="TCP Option - Timestamps: TSval 2490944216, TSecr 2266147419" size="10" pos="46" show="08:0a:94:78:ca:d8:87:12:aa:5b" value="080a9478cad88712aa5b">
        <field name="tcp.option_kind" showname="Kind: Time Stamp Option (8)" size="1" pos="46" show="8" value="08"/>
        <field name="tcp.option_len" showname="Length: 10" size="1" pos="47" show="10" value="0a"/>
        <field name="tcp.options.timestamp.tsval" showname="Timestamp value: 2490944216" size="4" pos="48" show="2490944216" value="9478cad8"/>
        <field name="tcp.options.timestamp.tsecr" showname="Timestamp echo reply: 2266147419" size="4" pos="52" show="2266147419" value="8712aa5b"/>
      </field>
    </field>
    <field name="" show="Timestamps" size="0" pos="24">
      <field name="tcp.time_relative" showname="Time since first frame in this TCP stream: 11.744000 milliseconds" size="0" pos="24" show="0.011744000"/>
      <field name="tcp.time_delta" showname="Time since previous frame in this TCP stream: 558.000 microseconds" size="0" pos="24" show="0.000558000"/>
    </field>
    <field name="tcp.stream.client.contiguity_count" showname="Client Contiguous Streams: 1" size="0" pos="24" show="1"/>
    <field name="tcp.stream.server.contiguity_count" showname="Server Contiguous Streams: 1" size="0" pos="24" show="1"/>
  </proto>
</packet>


<packet>
  <proto name="geninfo" pos="0" showname="General information" size="56">
    <field name="num" pos="0" show="16" showname="Number" value="10" size="56"/>
    <field name="len" pos="0" show="56" showname="Frame Length" value="38" size="56"/>
    <field name="caplen" pos="0" show="56" showname="Captured Length" value="38" size="56"/>
    <field name="timestamp" pos="0" show="Sep 14, 2026 06:56:24.070817000 MSK" showname="Captured Time" value="1789358184.070817000" size="56"/>
  </proto>
  <proto name="frame" showname="Frame 16: Packet, 56 bytes on wire (448 bits), 56 bytes captured (448 bits) on interface lo0, id 0" size="56" pos="0">
    <field name="frame.section_number" showname="Section number: 1" size="0" pos="0" show="1"/>
    <field name="frame.interface_id" showname="Interface id: 0 (lo0)" size="0" pos="0" show="0">
      <field name="frame.interface_name" showname="Interface name: lo0" size="0" pos="0" show="lo0"/>
      <field name="frame.interface_description" showname="Interface description: Loopback" size="0" pos="0" show="Loopback"/>
    </field>
    <field name="frame.encap_type" showname="Encapsulation type: NULL/Loopback (15)" size="0" pos="0" show="15"/>
    <field name="frame.time" showname="Arrival Time: Sep 14, 2026 06:56:24.070817000 MSK" size="0" pos="0" show="2026-09-14T06:56:24.070817000+0300"/>
    <field name="frame.time_utc" showname="UTC Arrival Time: Sep 14, 2026 03:56:24.070817000 UTC" size="0" pos="0" show="2026-09-14T03:56:24.070817000Z"/>
    <field name="frame.time_epoch" showname="Epoch Arrival Time: 1789358184.070817000" size="0" pos="0" show="1789358184.070817000"/>
    <field name="frame.offset_shift" showname="Time shift for this packet: 0.000000000 seconds" size="0" pos="0" show="0.000000000"/>
    <field name="frame.time_delta" showname="Time delta from previous captured frame: 36.000 microseconds" size="0" pos="0" show="0.000036000"/>
    <field name="frame.time_delta_displayed" showname="Time delta from previous displayed frame: 36.000 microseconds" size="0" pos="0" show="0.000036000"/>
    <field name="frame.time_relative" showname="Time since reference or first frame: 11.780000 milliseconds" size="0" pos="0" show="0.011780000"/>
    <field name="frame.number" showname="Frame Number: 16" size="0" pos="0" show="16"/>
    <field name="frame.len" showname="Frame Length: 56 bytes (448 bits)" size="0" pos="0" show="56"/>
    <field name="frame.cap_len" showname="Capture Length: 56 bytes (448 bits)" size="0" pos="0" show="56"/>
    <field name="frame.marked" showname="Frame is marked: False" size="0" pos="0" show="False"/>
    <field name="frame.ignored" showname="Frame is ignored: False" size="0" pos="0" show="False"/>
    <field name="frame.protocols" showname="Protocols in frame: null:ip:tcp" size="0" pos="0" show="null:ip:tcp"/>
    <field name="frame.encoding" showname="Character encoding: ASCII (0)" size="0" pos="0" show="0"/>
  </proto>
  <proto name="null" showname="Null/Loopback" size="4" pos="0">
    <field name="null.family" showname="Family: IP (2)" size="4" pos="0" show="2" value="02000000"/>
  </proto>
  <proto name="ip" showname="Internet Protocol Version 4, Src: 127.0.0.1, Dst: 127.0.0.1" size="20" pos="4">
    <field name="ip.version" showname="0100 .... = Version: 4" size="1" pos="4" show="4" value="45"/>
    <field name="ip.hdr_len" showname=".... 0101 = Header Length: 20 bytes (5)" size="1" pos="4" show="20" value="45"/>
    <field name="ip.dsfield" showname="Differentiated Services Field: 0x00 (DSCP: CS0, ECN: Not-ECT)" size="1" pos="5" show="0x00" value="00">
      <field name="ip.dsfield.dscp" showname="0000 00.. = Differentiated Services Codepoint: Default (0)" size="1" pos="5" show="0" value="0" unmaskedvalue="00"/>
      <field name="ip.dsfield.ecn" showname=".... ..00 = Explicit Congestion Notification: Not ECN-Capable Transport (0)" size="1" pos="5" show="0" value="0" unmaskedvalue="00"/>
    </field>
    <field name="ip.len" showname="Total Length: 52" size="2" pos="6" show="52" value="0034"/>
    <field name="ip.id" showname="Identification: 0x0000 (0)" size="2" pos="8" show="0x0000" value="0000"/>
    <field name="ip.flags" showname="010. .... = Flags: 0x2, Don&#x27;t fragment" size="1" pos="10" show="0x02" value="2" unmaskedvalue="40">
      <field name="ip.flags.rb" showname="0... .... = Reserved bit: Not set" size="1" pos="10" show="False" value="0" unmaskedvalue="40"/>
      <field name="ip.flags.df" showname=".1.. .... = Don&#x27;t fragment: Set" size="1" pos="10" show="True" value="1" unmaskedvalue="40"/>
      <field name="ip.flags.mf" showname="..0. .... = More fragments: Not set" size="1" pos="10" show="False" value="0" unmaskedvalue="40"/>
    </field>
    <field name="ip.frag_offset" showname="...0 0000 0000 0000 = Fragment Offset: 0" size="2" pos="10" show="0" value="0" unmaskedvalue="4000"/>
    <field name="ip.ttl" showname="Time to Live: 64" size="1" pos="12" show="64" value="40"/>
    <field name="ip.proto" showname="Protocol: TCP (6)" size="1" pos="13" show="6" value="06"/>
    <field name="ip.checksum" showname="Header Checksum: 0x0000 [validation disabled]" size="2" pos="14" show="0x0000" value="0000"/>
    <field name="ip.checksum.status" showname="Header checksum status: Unverified" size="0" pos="14" show="2"/>
    <field name="ip.src" showname="Source Address: 127.0.0.1" size="4" pos="16" show="127.0.0.1" value="7f000001"/>
    <field name="ip.addr" showname="Source or Destination Address: 127.0.0.1" hide="yes" size="4" pos="16" show="127.0.0.1" value="7f000001"/>
    <field name="ip.src_host" showname="Source Host: 127.0.0.1" hide="yes" size="4" pos="16" show="127.0.0.1" value="7f000001"/>
    <field name="ip.host" showname="Source or Destination Host: 127.0.0.1" hide="yes" size="4" pos="16" show="127.0.0.1" value="7f000001"/>
    <field name="ip.dst" showname="Destination Address: 127.0.0.1" size="4" pos="20" show="127.0.0.1" value="7f000001"/>
    <field name="ip.addr" showname="Source or Destination Address: 127.0.0.1" hide="yes" size="4" pos="20" show="127.0.0.1" value="7f000001"/>
    <field name="ip.dst_host" showname="Destination Host: 127.0.0.1" hide="yes" size="4" pos="20" show="127.0.0.1" value="7f000001"/>
    <field name="ip.host" showname="Source or Destination Host: 127.0.0.1" hide="yes" size="4" pos="20" show="127.0.0.1" value="7f000001"/>
    <field name="ip.stream" showname="Stream index: 0" size="0" pos="24" show="0"/>
  </proto>
  <proto name="tcp" showname="Transmission Control Protocol, Src Port: 56080, Dst Port: 18123, Seq: 324, Ack: 912, Len: 0" size="32" pos="24">
    <field name="tcp.srcport" showname="Source Port: 56080" size="2" pos="24" show="56080" value="db10"/>
    <field name="tcp.dstport" showname="Destination Port: 18123" size="2" pos="26" show="18123" value="46cb"/>
    <field name="tcp.port" showname="Source or Destination Port: 56080" hide="yes" size="2" pos="24" show="56080" value="db10"/>
    <field name="tcp.port" showname="Source or Destination Port: 18123" hide="yes" size="2" pos="26" show="18123" value="46cb"/>
    <field name="tcp.stream" showname="Stream index: 0" size="0" pos="24" show="0"/>
    <field name="tcp.stream.pnum" showname="Stream Packet Number: 16" size="0" pos="24" show="16"/>
    <field name="tcp.completeness" showname="Conversation completeness: Complete, WITH_DATA (31)" size="0" pos="24" show="31">
      <field name="tcp.completeness.rst" showname="..0. .... = RST: Absent" size="0" pos="0" show="False"/>
      <field name="tcp.completeness.fin" showname="...1 .... = FIN: Present" size="0" pos="0" show="True"/>
      <field name="tcp.completeness.data" showname=".... 1... = Data: Present" size="0" pos="0" show="True"/>
      <field name="tcp.completeness.ack" showname=".... .1.. = ACK: Present" size="0" pos="0" show="True"/>
      <field name="tcp.completeness.syn-ack" showname=".... ..1. = SYN-ACK: Present" size="0" pos="0" show="True"/>
      <field name="tcp.completeness.syn" showname=".... ...1 = SYN: Present" size="0" pos="0" show="True"/>
      <field name="tcp.completeness.str" showname="Completeness Flags: ·FDASS" size="0" pos="24" show="·FDASS"/>
    </field>
    <field name="tcp.len" showname="TCP Segment Len: 0" size="0" pos="24" show="0"/>
    <field name="tcp.seq" showname="Sequence Number: 324    (relative sequence number)" size="4" pos="28" show="324" value="3411994a"/>
    <field name="tcp.seq_raw" showname="Sequence Number (raw): 873568586" size="4" pos="28" show="873568586" value="3411994a"/>
    <field name="tcp.nxtseq" showname="Next Sequence Number: 324    (relative sequence number)" size="0" pos="24" show="324"/>
    <field name="tcp.ack" showname="Acknowledgment Number: 912    (relative ack number)" size="4" pos="32" show="912" value="a8ebb0a8"/>
    <field name="tcp.ack_raw" showname="Acknowledgment number (raw): 2834018472" size="4" pos="32" show="2834018472" value="a8ebb0a8"/>
    <field name="tcp.hdr_len" showname="1000 .... = Header Length: 32 bytes (8)" size="1" pos="36" show="32" value="80"/>
    <field name="tcp.flags" showname="Flags: 0x010 (ACK)" size="2" pos="36" show="0x0010" value="10" unmaskedvalue="8010">
      <field name="tcp.flags.res" showname="000. .... .... = Reserved: Not set" size="1" pos="36" show="False" value="0" unmaskedvalue="80"/>
      <field name="tcp.flags.ae" showname="...0 .... .... = Accurate ECN: Not set" size="1" pos="36" show="False" value="0" unmaskedvalue="80"/>
      <field name="tcp.flags.cwr" showname=".... 0... .... = Congestion Window Reduced: Not set" size="1" pos="37" show="False" value="0" unmaskedvalue="10"/>
      <field name="tcp.flags.ece" showname=".... .0.. .... = ECN-Echo: Not set" size="1" pos="37" show="False" value="0" unmaskedvalue="10"/>
      <field name="tcp.flags.urg" showname=".... ..0. .... = Urgent: Not set" size="1" pos="37" show="False" value="0" unmaskedvalue="10"/>
      <field name="tcp.flags.ack" showname=".... ...1 .... = Acknowledgment: Set" size="1" pos="37" show="True" value="1" unmaskedvalue="10"/>
      <field name="tcp.flags.push" showname=".... .... 0... = Push: Not set" size="1" pos="37" show="False" value="0" unmaskedvalue="10"/>
      <field name="tcp.flags.reset" showname=".... .... .0.. = Reset: Not set" size="1" pos="37" show="False" value="0" unmaskedvalue="10"/>
      <field name="tcp.flags.syn" showname=".... .... ..0. = Syn: Not set" size="1" pos="37" show="False" value="0" unmaskedvalue="10"/>
      <field name="tcp.flags.fin" showname=".... .... ...0 = Fin: Not set" size="1" pos="37" show="False" value="0" unmaskedvalue="10"/>
      <field name="tcp.flags.str" showname="TCP Flags: ·······A····" size="2" pos="36" show="·······A····" value="8010"/>
    </field>
    <field name="tcp.window_size_value" showname="Window: 6366" size="2" pos="38" show="6366" value="18de"/>
    <field name="tcp.window_size" showname="Calculated window size: 407424" size="2" pos="38" show="407424" value="18de"/>
    <field name="tcp.window_size_scalefactor" showname="Window size scaling factor: 64" size="2" pos="38" show="64" value="18de"/>
    <field name="tcp.checksum" showname="Checksum: 0xfe28 [unverified]" size="2" pos="40" show="0xfe28" value="fe28"/>
    <field name="tcp.checksum.status" showname="Checksum Status: Unverified" size="0" pos="40" show="2"/>
    <field name="tcp.urgent_pointer" showname="Urgent Pointer: 0" size="2" pos="42" show="0" value="0000"/>
    <field name="tcp.options" showname="Options: (12 bytes), No-Operation (NOP), No-Operation (NOP), Timestamps" size="12" pos="44" show="01:01:08:0a:87:12:aa:5c:94:78:ca:d8" value="0101080a8712aa5c9478cad8">
      <field name="tcp.options.nop" showname="TCP Option - No-Operation (NOP)" size="1" pos="44" show="01" value="01">
        <field name="tcp.option_kind" showname="Kind: No-Operation (1)" size="1" pos="44" show="1" value="01"/>
      </field>
      <field name="tcp.options.nop" showname="TCP Option - No-Operation (NOP)" size="1" pos="45" show="01" value="01">
        <field name="tcp.option_kind" showname="Kind: No-Operation (1)" size="1" pos="45" show="1" value="01"/>
      </field>
      <field name="tcp.options.timestamp" showname="TCP Option - Timestamps: TSval 2266147420, TSecr 2490944216" size="10" pos="46" show="08:0a:87:12:aa:5c:94:78:ca:d8" value="080a8712aa5c9478cad8">
        <field name="tcp.option_kind" showname="Kind: Time Stamp Option (8)" size="1" pos="46" show="8" value="08"/>
        <field name="tcp.option_len" showname="Length: 10" size="1" pos="47" show="10" value="0a"/>
        <field name="tcp.options.timestamp.tsval" showname="Timestamp value: 2266147420" size="4" pos="48" show="2266147420" value="8712aa5c"/>
        <field name="tcp.options.timestamp.tsecr" showname="Timestamp echo reply: 2490944216" size="4" pos="52" show="2490944216" value="9478cad8"/>
      </field>
    </field>
    <field name="" show="Timestamps" size="0" pos="24">
      <field name="tcp.time_relative" showname="Time since first frame in this TCP stream: 11.780000 milliseconds" size="0" pos="24" show="0.011780000"/>
      <field name="tcp.time_delta" showname="Time since previous frame in this TCP stream: 36.000 microseconds" size="0" pos="24" show="0.000036000"/>
    </field>
    <field name="tcp.analysis" showname="SEQ/ACK analysis" size="0" pos="24" show="" value="">
      <field name="tcp.analysis.acks_frame" showname="This is an ACK to the segment in frame: 15" size="0" pos="24" show="15"/>
      <field name="tcp.analysis.ack_rtt" showname="The RTT to ACK the segment was: 36.000 microseconds" size="0" pos="24" show="0.000036000"/>
      <field name="tcp.analysis.initial_rtt" showname="iRTT: 173.000 microseconds" size="0" pos="24" show="0.000173000"/>
    </field>
    <field name="tcp.stream.client.contiguity_count" showname="Client Contiguous Streams: 1" size="0" pos="24" show="1"/>
    <field name="tcp.stream.server.contiguity_count" showname="Server Contiguous Streams: 1" size="0" pos="24" show="1"/>
  </proto>
</packet>


</pdml>
